

Microchip MPLAB XC8 Assembler V2.35 build 20211206165544 
                                                                                               Sat Apr 23 17:07:16 2022

Microchip MPLAB XC8 C Compiler v2.35 (Free license) build 20211206165544 Og1 
     1                           	processor	16F887
     2                           	pagewidth 120
     3                           	opt	flic
     4                           	psect	cinit,global,class=CODE,merge=1,delta=2
     5                           	psect	bssCOMMON,global,class=COMMON,space=1,delta=1,noexec
     6                           	psect	bssBANK0,global,class=BANK0,space=1,delta=1,noexec
     7                           	psect	cstackCOMMON,global,class=COMMON,space=1,delta=1,noexec
     8                           	psect	cstackBANK0,global,class=BANK0,space=1,delta=1,noexec
     9                           	psect	maintext,global,class=CODE,split=1,delta=2
    10                           	psect	text1,local,class=CODE,merge=1,delta=2
    11                           	psect	text2,local,class=CODE,merge=1,delta=2
    12                           	psect	text3,local,class=CODE,merge=1,delta=2,group=1
    13                           	psect	text4,local,class=CODE,merge=1,delta=2,group=1
    14                           	psect	text5,local,class=CODE,merge=1,delta=2,group=1
    15                           	psect	text6,local,class=CODE,merge=1,delta=2,group=1
    16                           	psect	text7,local,class=CODE,merge=1,delta=2,group=1
    17                           	psect	text8,local,class=CODE,merge=1,delta=2,group=1
    18                           	psect	text9,local,class=CODE,merge=1,delta=2
    19                           	psect	intentry,global,class=CODE,delta=2
    20                           	psect	text10,local,class=CODE,merge=1,delta=2
    21                           	psect	text11,local,class=CODE,merge=1,delta=2
    22                           	psect	idloc,global,abs,ovrld,class=IDLOC,space=5,delta=2,noexec
    23                           	psect	config,global,abs,ovrld,class=CONFIG,space=4,delta=2,noexec
    24                           	dabs	1,0x7E,2
    25  0000                     
    26                           ; Version 2.40
    27                           ; Generated 17/11/2021 GMT
    28                           ; 
    29                           ; Copyright © 2021, Microchip Technology Inc. and its subsidiaries ("Microchip")
    30                           ; All rights reserved.
    31                           ; 
    32                           ; This software is developed by Microchip Technology Inc. and its subsidiaries ("Microch
      +                          ip").
    33                           ; 
    34                           ; Redistribution and use in source and binary forms, with or without modification, are
    35                           ; permitted provided that the following conditions are met:
    36                           ; 
    37                           ;     1. Redistributions of source code must retain the above copyright notice, this lis
      +                          t of
    38                           ;        conditions and the following disclaimer.
    39                           ; 
    40                           ;     2. Redistributions in binary form must reproduce the above copyright notice, this 
      +                          list
    41                           ;        of conditions and the following disclaimer in the documentation and/or other
    42                           ;        materials provided with the distribution. Publication is not required when
    43                           ;        this file is used in an embedded application.
    44                           ; 
    45                           ;     3. Microchip's name may not be used to endorse or promote products derived from th
      +                          is
    46                           ;        software without specific prior written permission.
    47                           ; 
    48                           ; THIS SOFTWARE IS PROVIDED BY MICROCHIP "AS IS" AND ANY EXPRESS OR IMPLIED WARRANTIES,
    49                           ; INCLUDING, BUT NOT LIMITED TO, THE IMPLIED WARRANTIES OF MERCHANTABILITY AND FITNESS F
      +                          OR
    50                           ; PURPOSE ARE DISCLAIMED.  IN NO EVENT SHALL MICROCHIP BE LIABLE FOR ANY DIRECT, INDIREC
      +                          T,
    51                           ; INCIDENTAL, SPECIAL, EXEMPLARY, OR CONSEQUENTIAL DAMAGES (INCLUDING BUT NOT LIMITED TO
    52                           ; PROCUREMENT OF SUBSTITUTE GOODS OR SERVICES; LOSS OF USE, DATA OR PROFITS; OR BUSINESS
    53                           ; INTERRUPTION) HOWSOEVER CAUSED AND ON ANY THEORY OF LIABILITY, WHETHER IN CONTRACT, ST
      +                          RICT
    54                           ; LIABILITY, OR TORT (INCLUDING NEGLIGENCE OR OTHERWISE) ARISING IN ANY WAY OUT OF THE U
      +                          SE OF
    55                           ; THIS SOFTWARE, EVEN IF ADVISED OF THE POSSIBILITY OF SUCH DAMAGE.
    56                           ; 
    57                           ; 
    58                           ; Code-generator required, PIC16F887 Definitions
    59                           ; 
    60                           ; SFR Addresses
    61  0000                     	;# 
    62  0001                     	;# 
    63  0002                     	;# 
    64  0003                     	;# 
    65  0004                     	;# 
    66  0005                     	;# 
    67  0006                     	;# 
    68  0007                     	;# 
    69  0008                     	;# 
    70  0009                     	;# 
    71  000A                     	;# 
    72  000B                     	;# 
    73  000C                     	;# 
    74  000D                     	;# 
    75  000E                     	;# 
    76  000E                     	;# 
    77  000F                     	;# 
    78  0010                     	;# 
    79  0011                     	;# 
    80  0012                     	;# 
    81  0013                     	;# 
    82  0014                     	;# 
    83  0015                     	;# 
    84  0015                     	;# 
    85  0016                     	;# 
    86  0017                     	;# 
    87  0018                     	;# 
    88  0019                     	;# 
    89  001A                     	;# 
    90  001B                     	;# 
    91  001B                     	;# 
    92  001C                     	;# 
    93  001D                     	;# 
    94  001E                     	;# 
    95  001F                     	;# 
    96  0081                     	;# 
    97  0085                     	;# 
    98  0086                     	;# 
    99  0087                     	;# 
   100  0088                     	;# 
   101  0089                     	;# 
   102  008C                     	;# 
   103  008D                     	;# 
   104  008E                     	;# 
   105  008F                     	;# 
   106  0090                     	;# 
   107  0091                     	;# 
   108  0092                     	;# 
   109  0093                     	;# 
   110  0093                     	;# 
   111  0093                     	;# 
   112  0094                     	;# 
   113  0095                     	;# 
   114  0096                     	;# 
   115  0097                     	;# 
   116  0098                     	;# 
   117  0099                     	;# 
   118  009A                     	;# 
   119  009B                     	;# 
   120  009C                     	;# 
   121  009D                     	;# 
   122  009E                     	;# 
   123  009F                     	;# 
   124  0105                     	;# 
   125  0107                     	;# 
   126  0108                     	;# 
   127  0109                     	;# 
   128  010C                     	;# 
   129  010C                     	;# 
   130  010D                     	;# 
   131  010E                     	;# 
   132  010F                     	;# 
   133  0185                     	;# 
   134  0187                     	;# 
   135  0188                     	;# 
   136  0189                     	;# 
   137  018C                     	;# 
   138  018D                     	;# 
   139  0000                     	;# 
   140  0001                     	;# 
   141  0002                     	;# 
   142  0003                     	;# 
   143  0004                     	;# 
   144  0005                     	;# 
   145  0006                     	;# 
   146  0007                     	;# 
   147  0008                     	;# 
   148  0009                     	;# 
   149  000A                     	;# 
   150  000B                     	;# 
   151  000C                     	;# 
   152  000D                     	;# 
   153  000E                     	;# 
   154  000E                     	;# 
   155  000F                     	;# 
   156  0010                     	;# 
   157  0011                     	;# 
   158  0012                     	;# 
   159  0013                     	;# 
   160  0014                     	;# 
   161  0015                     	;# 
   162  0015                     	;# 
   163  0016                     	;# 
   164  0017                     	;# 
   165  0018                     	;# 
   166  0019                     	;# 
   167  001A                     	;# 
   168  001B                     	;# 
   169  001B                     	;# 
   170  001C                     	;# 
   171  001D                     	;# 
   172  001E                     	;# 
   173  001F                     	;# 
   174  0081                     	;# 
   175  0085                     	;# 
   176  0086                     	;# 
   177  0087                     	;# 
   178  0088                     	;# 
   179  0089                     	;# 
   180  008C                     	;# 
   181  008D                     	;# 
   182  008E                     	;# 
   183  008F                     	;# 
   184  0090                     	;# 
   185  0091                     	;# 
   186  0092                     	;# 
   187  0093                     	;# 
   188  0093                     	;# 
   189  0093                     	;# 
   190  0094                     	;# 
   191  0095                     	;# 
   192  0096                     	;# 
   193  0097                     	;# 
   194  0098                     	;# 
   195  0099                     	;# 
   196  009A                     	;# 
   197  009B                     	;# 
   198  009C                     	;# 
   199  009D                     	;# 
   200  009E                     	;# 
   201  009F                     	;# 
   202  0105                     	;# 
   203  0107                     	;# 
   204  0108                     	;# 
   205  0109                     	;# 
   206  010C                     	;# 
   207  010C                     	;# 
   208  010D                     	;# 
   209  010E                     	;# 
   210  010F                     	;# 
   211  0185                     	;# 
   212  0187                     	;# 
   213  0188                     	;# 
   214  0189                     	;# 
   215  018C                     	;# 
   216  018D                     	;# 
   217  0008                     _PORTDbits	set	8
   218  0008                     _PORTD	set	8
   219  0007                     _PORTC	set	7
   220  0005                     _PORTA	set	5
   221  0001                     _TMR0	set	1
   222  000B                     _INTCONbits	set	11
   223  001E                     _ADRESH	set	30
   224  0006                     _PORTB	set	6
   225  001F                     _ADCON0bits	set	31
   226  000C                     _PIR1bits	set	12
   227  008F                     _OSCCONbits	set	143
   228  0081                     _OPTION_REGbits	set	129
   229  009F                     _ADCON1bits	set	159
   230  008C                     _PIE1bits	set	140
   231  0088                     _TRISD	set	136
   232  0087                     _TRISC	set	135
   233  0086                     _TRISB	set	134
   234  0085                     _TRISA	set	133
   235  0189                     _ANSELH	set	393
   236  0188                     _ANSEL	set	392
   237                           
   238                           	psect	cinit
   239  0011                     start_initialization:	
   240                           ; #config settings
   241                           
   242  0011                     __initialization:
   243                           
   244                           ; Clear objects allocated to COMMON
   245  0011  01FB               	clrf	__pbssCOMMON& (0+127)
   246                           
   247                           ; Clear objects allocated to BANK0
   248  0012  1283               	bcf	3,5	;RP0=0, select bank0
   249  0013  1303               	bcf	3,6	;RP1=0, select bank0
   250  0014  01DB               	clrf	__pbssBANK0& (0+127)
   251  0015  01DC               	clrf	(__pbssBANK0+1)& (0+127)
   252  0016  01DD               	clrf	(__pbssBANK0+2)& (0+127)
   253  0017  01DE               	clrf	(__pbssBANK0+3)& (0+127)
   254  0018  01DF               	clrf	(__pbssBANK0+4)& (0+127)
   255  0019  01E0               	clrf	(__pbssBANK0+5)& (0+127)
   256  001A  01E1               	clrf	(__pbssBANK0+6)& (0+127)
   257  001B  01E2               	clrf	(__pbssBANK0+7)& (0+127)
   258  001C  01E3               	clrf	(__pbssBANK0+8)& (0+127)
   259  001D                     end_of_initialization:	
   260                           ;End of C runtime variable initialization code
   261                           
   262  001D                     __end_of__initialization:
   263  001D  0183               	clrf	3
   264  001E  120A  118A  2C3E   	ljmp	_main	;jump to C main() function
   265                           
   266                           	psect	bssCOMMON
   267  007B                     __pbssCOMMON:
   268  007B                     _Bandera_multiplexado:
   269  007B                     	ds	1
   270                           
   271                           	psect	bssBANK0
   272  005B                     __pbssBANK0:
   273  005B                     _voltaje:
   274  005B                     	ds	2
   275  005D                     _Van1:
   276  005D                     	ds	1
   277  005E                     _VALOR:
   278  005E                     	ds	6
   279                           
   280                           	psect	cstackCOMMON
   281  0070                     __pcstackCOMMON:
   282  0070                     ?_mostrar:
   283  0070                     ?_setup:	
   284                           ; 1 bytes @ 0x0
   285                           
   286  0070                     ?_tabla:	
   287                           ; 1 bytes @ 0x0
   288                           
   289  0070                     ?_isr:	
   290                           ; 1 bytes @ 0x0
   291                           
   292  0070                     ?_main:	
   293                           ; 1 bytes @ 0x0
   294                           
   295  0070                     tabla@a:	
   296                           ; 1 bytes @ 0x0
   297                           
   298                           
   299                           ; 2 bytes @ 0x0
   300  0070                     	ds	2
   301  0072                     ??_tabla:
   302                           
   303                           ; 1 bytes @ 0x2
   304  0072                     	ds	1
   305  0073                     tabla@valor:
   306                           
   307                           ; 1 bytes @ 0x3
   308  0073                     	ds	1
   309  0074                     ??_mostrar:
   310                           
   311                           ; 1 bytes @ 0x4
   312  0074                     	ds	2
   313  0076                     mostrar@a:
   314                           
   315                           ; 1 bytes @ 0x6
   316  0076                     	ds	1
   317  0077                     ??_isr:
   318                           
   319                           ; 1 bytes @ 0x7
   320  0077                     	ds	4
   321                           
   322                           	psect	cstackBANK0
   323  0020                     __pcstackBANK0:
   324  0020                     ??_setup:
   325  0020                     ?__Umul8_16:	
   326                           ; 1 bytes @ 0x0
   327                           
   328  0020                     ?___wmul:	
   329                           ; 2 bytes @ 0x0
   330                           
   331  0020                     ?___xxtofl:	
   332                           ; 2 bytes @ 0x0
   333                           
   334  0020                     __Umul8_16@multiplicand:	
   335                           ; 4 bytes @ 0x0
   336                           
   337  0020                     ___wmul@multiplier:	
   338                           ; 1 bytes @ 0x0
   339                           
   340  0020                     ___xxtofl@val:	
   341                           ; 2 bytes @ 0x0
   342                           
   343                           
   344                           ; 4 bytes @ 0x0
   345  0020                     	ds	2
   346  0022                     ??__Umul8_16:
   347  0022                     ___wmul@multiplicand:	
   348                           ; 1 bytes @ 0x2
   349                           
   350                           
   351                           ; 2 bytes @ 0x2
   352  0022                     	ds	2
   353  0024                     ??___wmul:
   354  0024                     ??___xxtofl:	
   355                           ; 1 bytes @ 0x4
   356                           
   357  0024                     ___wmul@product:	
   358                           ; 1 bytes @ 0x4
   359                           
   360  0024                     __Umul8_16@product:	
   361                           ; 2 bytes @ 0x4
   362                           
   363                           
   364                           ; 2 bytes @ 0x4
   365  0024                     	ds	2
   366  0026                     ?___awdiv:
   367  0026                     ___awdiv@divisor:	
   368                           ; 2 bytes @ 0x6
   369                           
   370  0026                     __Umul8_16@word_mpld:	
   371                           ; 2 bytes @ 0x6
   372                           
   373                           
   374                           ; 2 bytes @ 0x6
   375  0026                     	ds	2
   376  0028                     __Umul8_16@multiplier:
   377  0028                     ___xxtofl@sign:	
   378                           ; 1 bytes @ 0x8
   379                           
   380  0028                     ___awdiv@dividend:	
   381                           ; 1 bytes @ 0x8
   382                           
   383                           
   384                           ; 2 bytes @ 0x8
   385  0028                     	ds	1
   386  0029                     ___xxtofl@exp:
   387                           
   388                           ; 1 bytes @ 0x9
   389  0029                     	ds	1
   390  002A                     ??___awdiv:
   391  002A                     ___xxtofl@arg:	
   392                           ; 1 bytes @ 0xA
   393                           
   394                           
   395                           ; 4 bytes @ 0xA
   396  002A                     	ds	1
   397  002B                     ___awdiv@counter:
   398                           
   399                           ; 1 bytes @ 0xB
   400  002B                     	ds	1
   401  002C                     ___awdiv@sign:
   402                           
   403                           ; 1 bytes @ 0xC
   404  002C                     	ds	1
   405  002D                     ___awdiv@quotient:
   406                           
   407                           ; 2 bytes @ 0xD
   408  002D                     	ds	1
   409  002E                     ?___flmul:
   410  002E                     ___flmul@b:	
   411                           ; 4 bytes @ 0xE
   412                           
   413                           
   414                           ; 4 bytes @ 0xE
   415  002E                     	ds	1
   416  002F                     ?_separacion:
   417  002F                     separacion@a:	
   418                           ; 1 bytes @ 0xF
   419                           
   420                           
   421                           ; 2 bytes @ 0xF
   422  002F                     	ds	2
   423  0031                     separacion@b:
   424                           
   425                           ; 1 bytes @ 0x11
   426  0031                     	ds	1
   427  0032                     ??_separacion:
   428  0032                     ___flmul@a:	
   429                           ; 1 bytes @ 0x12
   430                           
   431                           
   432                           ; 4 bytes @ 0x12
   433  0032                     	ds	4
   434  0036                     ??___flmul:
   435                           
   436                           ; 1 bytes @ 0x16
   437  0036                     	ds	5
   438  003B                     ___flmul@sign:
   439                           
   440                           ; 1 bytes @ 0x1B
   441  003B                     	ds	1
   442  003C                     ___flmul@grs:
   443                           
   444                           ; 4 bytes @ 0x1C
   445  003C                     	ds	4
   446  0040                     ___flmul@aexp:
   447                           
   448                           ; 1 bytes @ 0x20
   449  0040                     	ds	1
   450  0041                     ___flmul@bexp:
   451                           
   452                           ; 1 bytes @ 0x21
   453  0041                     	ds	1
   454  0042                     ___flmul@prod:
   455                           
   456                           ; 4 bytes @ 0x22
   457  0042                     	ds	4
   458  0046                     ___flmul@temp:
   459                           
   460                           ; 2 bytes @ 0x26
   461  0046                     	ds	2
   462  0048                     ?___fltol:
   463  0048                     ___fltol@f1:	
   464                           ; 4 bytes @ 0x28
   465                           
   466                           
   467                           ; 4 bytes @ 0x28
   468  0048                     	ds	4
   469  004C                     ??___fltol:
   470                           
   471                           ; 1 bytes @ 0x2C
   472  004C                     	ds	5
   473  0051                     ___fltol@sign1:
   474                           
   475                           ; 1 bytes @ 0x31
   476  0051                     	ds	1
   477  0052                     ___fltol@exp1:
   478                           
   479                           ; 1 bytes @ 0x32
   480  0052                     	ds	1
   481  0053                     ??_main:
   482                           
   483                           ; 1 bytes @ 0x33
   484  0053                     	ds	4
   485  0057                     _main$926:
   486                           
   487                           ; 4 bytes @ 0x37
   488  0057                     	ds	4
   489                           
   490                           	psect	maintext
   491  043E                     __pmaintext:	
   492 ;;
   493 ;;Main: autosize = 0, tempsize = 4, incstack = 0, save=0
   494 ;;
   495 ;; *************** function _main *****************
   496 ;; Defined at:
   497 ;;		line 82 in file "main.c"
   498 ;; Parameters:    Size  Location     Type
   499 ;;		None
   500 ;; Auto vars:     Size  Location     Type
   501 ;;		None
   502 ;; Return value:  Size  Location     Type
   503 ;;                  1    wreg      void 
   504 ;; Registers used:
   505 ;;		wreg, fsr0l, fsr0h, status,2, status,0, btemp+1, pclath, cstack
   506 ;; Tracked objects:
   507 ;;		On entry : B00/0
   508 ;;		On exit  : 0/0
   509 ;;		Unchanged: 0/0
   510 ;; Data sizes:     COMMON   BANK0   BANK1   BANK3   BANK2
   511 ;;      Params:         0       0       0       0       0
   512 ;;      Locals:         0       4       0       0       0
   513 ;;      Temps:          0       4       0       0       0
   514 ;;      Totals:         0       8       0       0       0
   515 ;;Total ram usage:        8 bytes
   516 ;; Hardware stack levels required when called: 5
   517 ;; This function calls:
   518 ;;		___flmul
   519 ;;		___fltol
   520 ;;		___xxtofl
   521 ;;		_separacion
   522 ;;		_setup
   523 ;; This function is called by:
   524 ;;		Startup code after reset
   525 ;; This function uses a non-reentrant model
   526 ;;
   527                           
   528  043E                     _main:	
   529                           ;psect for function _main
   530                           
   531  043E                     l1602:	
   532                           ;incstack = 0
   533                           ; Regs used in _main: [wreg-fsr0h+status,2+status,0+btemp+1+pclath+cstack]
   534                           
   535                           
   536                           ;main.c: 83:     setup();
   537  043E  120A  118A  26FB  120A  118A  	fcall	_setup
   538  0443                     l1604:
   539                           
   540                           ;main.c: 85:         voltaje = (Van1)*(0.0196)*100;
   541  0443  1283               	bcf	3,5	;RP0=0, select bank0
   542  0444  1303               	bcf	3,6	;RP1=0, select bank0
   543  0445  085D               	movf	_Van1,w
   544  0446  00D3               	movwf	??_main
   545  0447  01D4               	clrf	??_main+1
   546  0448  01D5               	clrf	??_main+2
   547  0449  01D6               	clrf	??_main+3
   548  044A  0856               	movf	??_main+3,w
   549  044B  00A3               	movwf	___xxtofl@val+3
   550  044C  0855               	movf	??_main+2,w
   551  044D  00A2               	movwf	___xxtofl@val+2
   552  044E  0854               	movf	??_main+1,w
   553  044F  00A1               	movwf	___xxtofl@val+1
   554  0450  0853               	movf	??_main,w
   555  0451  00A0               	movwf	___xxtofl@val
   556  0452  3001               	movlw	1
   557  0453  120A  118A  2382  120A  118A  	fcall	___xxtofl
   558  0458  1283               	bcf	3,5	;RP0=0, select bank0
   559  0459  1303               	bcf	3,6	;RP1=0, select bank0
   560  045A  0823               	movf	?___xxtofl+3,w
   561  045B  00B5               	movwf	___flmul@a+3
   562  045C  0822               	movf	?___xxtofl+2,w
   563  045D  00B4               	movwf	___flmul@a+2
   564  045E  0821               	movf	?___xxtofl+1,w
   565  045F  00B3               	movwf	___flmul@a+1
   566  0460  0820               	movf	?___xxtofl,w
   567  0461  00B2               	movwf	___flmul@a
   568  0462  303C               	movlw	60
   569  0463  00B1               	movwf	___flmul@b+3
   570  0464  30A0               	movlw	160
   571  0465  00B0               	movwf	___flmul@b+2
   572  0466  3090               	movlw	144
   573  0467  00AF               	movwf	___flmul@b+1
   574  0468  302E               	movlw	46
   575  0469  00AE               	movwf	___flmul@b
   576  046A  120A  118A  2021  120A  118A  	fcall	___flmul
   577  046F  1283               	bcf	3,5	;RP0=0, select bank0
   578  0470  1303               	bcf	3,6	;RP1=0, select bank0
   579  0471  0831               	movf	?___flmul+3,w
   580  0472  00DA               	movwf	_main$926+3
   581  0473  0830               	movf	?___flmul+2,w
   582  0474  00D9               	movwf	_main$926+2
   583  0475  082F               	movf	?___flmul+1,w
   584  0476  00D8               	movwf	_main$926+1
   585  0477  082E               	movf	?___flmul,w
   586  0478  00D7               	movwf	_main$926
   587  0479                     l1606:
   588                           
   589                           ;main.c: 85:         voltaje = (Van1)*(0.0196)*100;
   590  0479  085A               	movf	_main$926+3,w
   591  047A  00B5               	movwf	___flmul@a+3
   592  047B  0859               	movf	_main$926+2,w
   593  047C  00B4               	movwf	___flmul@a+2
   594  047D  0858               	movf	_main$926+1,w
   595  047E  00B3               	movwf	___flmul@a+1
   596  047F  0857               	movf	_main$926,w
   597  0480  00B2               	movwf	___flmul@a
   598  0481  3042               	movlw	66
   599  0482  00B1               	movwf	___flmul@b+3
   600  0483  30C8               	movlw	200
   601  0484  00B0               	movwf	___flmul@b+2
   602  0485  3000               	movlw	0
   603  0486  00AF               	movwf	___flmul@b+1
   604  0487  3000               	movlw	0
   605  0488  00AE               	movwf	___flmul@b
   606  0489  120A  118A  2021  120A  118A  	fcall	___flmul
   607  048E  1283               	bcf	3,5	;RP0=0, select bank0
   608  048F  1303               	bcf	3,6	;RP1=0, select bank0
   609  0490  0831               	movf	?___flmul+3,w
   610  0491  00CB               	movwf	___fltol@f1+3
   611  0492  0830               	movf	?___flmul+2,w
   612  0493  00CA               	movwf	___fltol@f1+2
   613  0494  082F               	movf	?___flmul+1,w
   614  0495  00C9               	movwf	___fltol@f1+1
   615  0496  082E               	movf	?___flmul,w
   616  0497  00C8               	movwf	___fltol@f1
   617  0498  120A  118A  2567  120A  118A  	fcall	___fltol
   618  049D  1283               	bcf	3,5	;RP0=0, select bank0
   619  049E  1303               	bcf	3,6	;RP1=0, select bank0
   620  049F  0849               	movf	?___fltol+1,w
   621  04A0  00DC               	movwf	_voltaje+1
   622  04A1  0848               	movf	?___fltol,w
   623  04A2  00DB               	movwf	_voltaje
   624  04A3                     l1608:
   625                           
   626                           ;main.c: 86:         separacion(voltaje, VALOR);
   627  04A3  085C               	movf	_voltaje+1,w
   628  04A4  00B0               	movwf	separacion@a+1
   629  04A5  085B               	movf	_voltaje,w
   630  04A6  00AF               	movwf	separacion@a
   631  04A7  305E               	movlw	(low (_VALOR| 0))& (0+255)
   632  04A8  00D3               	movwf	??_main
   633  04A9  0853               	movf	??_main,w
   634  04AA  00B1               	movwf	separacion@b
   635  04AB  120A  118A  24D9  120A  118A  	fcall	_separacion
   636  04B0                     l1610:
   637                           
   638                           ;main.c: 87:         if(ADCON0bits.GO == 0){
   639  04B0  1283               	bcf	3,5	;RP0=0, select bank0
   640  04B1  1303               	bcf	3,6	;RP1=0, select bank0
   641  04B2  189F               	btfsc	31,1	;volatile
   642  04B3  2CB5               	goto	u1701
   643  04B4  2CB6               	goto	u1700
   644  04B5                     u1701:
   645  04B5  2C43               	goto	l1604
   646  04B6                     u1700:
   647  04B6                     l1612:
   648                           
   649                           ;main.c: 88:             if(ADCON0bits.CHS == 0b0000)
   650  04B6  0C1F               	rrf	31,w	;volatile
   651  04B7  00D3               	movwf	??_main
   652  04B8  0C53               	rrf	??_main,w
   653  04B9  390F               	andlw	15
   654  04BA  3A00               	xorlw	0
   655  04BB  1D03               	skipz
   656  04BC  2CBE               	goto	u1711
   657  04BD  2CBF               	goto	u1710
   658  04BE                     u1711:
   659  04BE  2CC4               	goto	l1616
   660  04BF                     u1710:
   661  04BF                     l1614:
   662                           
   663                           ;main.c: 89:                 ADCON0bits.CHS = 0b0001;
   664  04BF  081F               	movf	31,w	;volatile
   665  04C0  39C3               	andlw	-61
   666  04C1  3804               	iorlw	4
   667  04C2  009F               	movwf	31	;volatile
   668  04C3  2CCF               	goto	l1620
   669  04C4                     l1616:
   670  04C4  0C1F               	rrf	31,w	;volatile
   671  04C5  00D3               	movwf	??_main
   672  04C6  0C53               	rrf	??_main,w
   673  04C7  390F               	andlw	15
   674  04C8  3A01               	xorlw	1
   675  04C9  1D03               	skipz
   676  04CA  2CCC               	goto	u1721
   677  04CB  2CCD               	goto	u1720
   678  04CC                     u1721:
   679  04CC  2CCF               	goto	l1620
   680  04CD                     u1720:
   681  04CD                     l1618:
   682                           
   683                           ;main.c: 91:                 ADCON0bits.CHS = 0b0000;
   684  04CD  30C3               	movlw	-61
   685  04CE  059F               	andwf	31,f	;volatile
   686  04CF                     l1620:
   687                           
   688                           ;main.c: 92:             _delay((unsigned long)((40)*(500000/4000000.0)));
   689  04CF  2CD0               	nop2	;2 cycle nop
   690  04D0  2CD1               	nop2	;2 cycle nop
   691  04D1  0000               	nop
   692  04D2                     l1622:
   693                           
   694                           ;main.c: 93:             ADCON0bits.GO = 1;
   695  04D2  1283               	bcf	3,5	;RP0=0, select bank0
   696  04D3  1303               	bcf	3,6	;RP1=0, select bank0
   697  04D4  149F               	bsf	31,1	;volatile
   698  04D5  2C43               	goto	l1604
   699  04D6  120A  118A  280E   	ljmp	start
   700  04D9                     __end_of_main:
   701                           
   702                           	psect	text1
   703  06FB                     __ptext1:	
   704 ;; *************** function _setup *****************
   705 ;; Defined at:
   706 ;;		line 102 in file "main.c"
   707 ;; Parameters:    Size  Location     Type
   708 ;;		None
   709 ;; Auto vars:     Size  Location     Type
   710 ;;		None
   711 ;; Return value:  Size  Location     Type
   712 ;;                  1    wreg      void 
   713 ;; Registers used:
   714 ;;		wreg, status,2, status,0
   715 ;; Tracked objects:
   716 ;;		On entry : 0/0
   717 ;;		On exit  : 0/0
   718 ;;		Unchanged: 0/0
   719 ;; Data sizes:     COMMON   BANK0   BANK1   BANK3   BANK2
   720 ;;      Params:         0       0       0       0       0
   721 ;;      Locals:         0       0       0       0       0
   722 ;;      Temps:          0       0       0       0       0
   723 ;;      Totals:         0       0       0       0       0
   724 ;;Total ram usage:        0 bytes
   725 ;; Hardware stack levels used: 1
   726 ;; Hardware stack levels required when called: 3
   727 ;; This function calls:
   728 ;;		Nothing
   729 ;; This function is called by:
   730 ;;		_main
   731 ;; This function uses a non-reentrant model
   732 ;;
   733                           
   734  06FB                     _setup:	
   735                           ;psect for function _setup
   736                           
   737  06FB                     l1306:	
   738                           ;incstack = 0
   739                           ; Regs used in _setup: [wreg+status,2+status,0]
   740                           
   741                           
   742                           ;main.c: 103:     ANSEL = 0b00000011;
   743  06FB  3003               	movlw	3
   744  06FC  1683               	bsf	3,5	;RP0=1, select bank3
   745  06FD  1703               	bsf	3,6	;RP1=1, select bank3
   746  06FE  0088               	movwf	8	;volatile
   747  06FF                     l1308:
   748                           
   749                           ;main.c: 104:     ANSELH = 0;
   750  06FF  0189               	clrf	9	;volatile
   751  0700                     l1310:
   752                           
   753                           ;main.c: 105:     TRISA = 0b00000011;
   754  0700  3003               	movlw	3
   755  0701  1683               	bsf	3,5	;RP0=1, select bank1
   756  0702  1303               	bcf	3,6	;RP1=0, select bank1
   757  0703  0085               	movwf	5	;volatile
   758                           
   759                           ;main.c: 106:     TRISB = 0x00;
   760  0704  0186               	clrf	6	;volatile
   761                           
   762                           ;main.c: 107:     TRISC = 0x00;
   763  0705  0187               	clrf	7	;volatile
   764                           
   765                           ;main.c: 108:     TRISD = 0x00;
   766  0706  0188               	clrf	8	;volatile
   767                           
   768                           ;main.c: 109:     PORTA = 0x00;
   769  0707  1283               	bcf	3,5	;RP0=0, select bank0
   770  0708  1303               	bcf	3,6	;RP1=0, select bank0
   771  0709  0185               	clrf	5	;volatile
   772                           
   773                           ;main.c: 110:     PORTB = 0x00;
   774  070A  0186               	clrf	6	;volatile
   775                           
   776                           ;main.c: 111:     PORTC = 0x00;
   777  070B  0187               	clrf	7	;volatile
   778                           
   779                           ;main.c: 112:     PORTD = 0x00;
   780  070C  0188               	clrf	8	;volatile
   781  070D                     l1312:
   782                           
   783                           ;main.c: 115:     PIR1bits.ADIF = 0;
   784  070D  130C               	bcf	12,6	;volatile
   785  070E                     l1314:
   786                           
   787                           ;main.c: 116:     PIE1bits.ADIE = 1;
   788  070E  1683               	bsf	3,5	;RP0=1, select bank1
   789  070F  1303               	bcf	3,6	;RP1=0, select bank1
   790  0710  170C               	bsf	12,6	;volatile
   791  0711                     l1316:
   792                           
   793                           ;main.c: 117:     INTCONbits.PEIE = 1;
   794  0711  170B               	bsf	11,6	;volatile
   795  0712                     l1318:
   796                           
   797                           ;main.c: 118:     INTCONbits.GIE = 1;
   798  0712  178B               	bsf	11,7	;volatile
   799  0713                     l1320:
   800                           
   801                           ;main.c: 119:     INTCONbits.T0IE = 1;
   802  0713  168B               	bsf	11,5	;volatile
   803  0714                     l1322:
   804                           
   805                           ;main.c: 120:     INTCONbits.T0IF = 0;
   806  0714  110B               	bcf	11,2	;volatile
   807  0715                     l1324:
   808                           
   809                           ;main.c: 123:     ADCON0bits.ADCS = 0b01;
   810  0715  1283               	bcf	3,5	;RP0=0, select bank0
   811  0716  1303               	bcf	3,6	;RP1=0, select bank0
   812  0717  081F               	movf	31,w	;volatile
   813  0718  393F               	andlw	-193
   814  0719  3840               	iorlw	64
   815  071A  009F               	movwf	31	;volatile
   816  071B                     l1326:
   817                           
   818                           ;main.c: 124:     ADCON1bits.VCFG0 = 0;
   819  071B  1683               	bsf	3,5	;RP0=1, select bank1
   820  071C  1303               	bcf	3,6	;RP1=0, select bank1
   821  071D  121F               	bcf	31,4	;volatile
   822  071E                     l1328:
   823                           
   824                           ;main.c: 125:     ADCON1bits.VCFG1 = 0;
   825  071E  129F               	bcf	31,5	;volatile
   826  071F                     l1330:
   827                           
   828                           ;main.c: 126:     ADCON0bits.CHS = 0b0000;
   829  071F  30C3               	movlw	-61
   830  0720  1283               	bcf	3,5	;RP0=0, select bank0
   831  0721  1303               	bcf	3,6	;RP1=0, select bank0
   832  0722  059F               	andwf	31,f	;volatile
   833  0723                     l1332:
   834                           
   835                           ;main.c: 127:     ADCON0bits.CHS = 0b0001;
   836  0723  081F               	movf	31,w	;volatile
   837  0724  39C3               	andlw	-61
   838  0725  3804               	iorlw	4
   839  0726  009F               	movwf	31	;volatile
   840  0727                     l1334:
   841                           
   842                           ;main.c: 128:     ADCON1bits.ADFM = 0;
   843  0727  1683               	bsf	3,5	;RP0=1, select bank1
   844  0728  1303               	bcf	3,6	;RP1=0, select bank1
   845  0729  139F               	bcf	31,7	;volatile
   846  072A                     l1336:
   847                           
   848                           ;main.c: 129:     ADCON0bits.ADON = 1;
   849  072A  1283               	bcf	3,5	;RP0=0, select bank0
   850  072B  1303               	bcf	3,6	;RP1=0, select bank0
   851  072C  141F               	bsf	31,0	;volatile
   852  072D                     l1338:
   853                           
   854                           ;main.c: 130:     _delay((unsigned long)((40)*(500000/4000000.0)));
   855  072D  2F2E               	nop2	;2 cycle nop
   856  072E  2F2F               	nop2	;2 cycle nop
   857  072F  0000               	nop
   858  0730                     l1340:
   859                           
   860                           ;main.c: 133:     OPTION_REGbits.T0CS = 0;
   861  0730  1683               	bsf	3,5	;RP0=1, select bank1
   862  0731  1303               	bcf	3,6	;RP1=0, select bank1
   863  0732  1281               	bcf	1,5	;volatile
   864  0733                     l1342:
   865                           
   866                           ;main.c: 134:     OPTION_REGbits.PSA = 0;
   867  0733  1181               	bcf	1,3	;volatile
   868  0734                     l1344:
   869                           
   870                           ;main.c: 135:     OPTION_REGbits.PS = 0b110;
   871  0734  0801               	movf	1,w	;volatile
   872  0735  39F8               	andlw	-8
   873  0736  3806               	iorlw	6
   874  0737  0081               	movwf	1	;volatile
   875  0738                     l1346:
   876                           
   877                           ;main.c: 143:     TMR0 = 254;
   878  0738  30FE               	movlw	254
   879  0739  1283               	bcf	3,5	;RP0=0, select bank0
   880  073A  1303               	bcf	3,6	;RP1=0, select bank0
   881  073B  0081               	movwf	1	;volatile
   882  073C                     l1348:
   883                           
   884                           ;main.c: 146:     OSCCONbits.IRCF = 0b011;
   885  073C  1683               	bsf	3,5	;RP0=1, select bank1
   886  073D  1303               	bcf	3,6	;RP1=0, select bank1
   887  073E  080F               	movf	15,w	;volatile
   888  073F  398F               	andlw	-113
   889  0740  3830               	iorlw	48
   890  0741  008F               	movwf	15	;volatile
   891  0742                     l1350:
   892                           
   893                           ;main.c: 147:     OSCCONbits.SCS = 1;
   894  0742  140F               	bsf	15,0	;volatile
   895  0743                     l85:
   896  0743  0008               	return
   897  0744                     __end_of_setup:
   898                           
   899                           	psect	text2
   900  04D9                     __ptext2:	
   901 ;; *************** function _separacion *****************
   902 ;; Defined at:
   903 ;;		line 154 in file "main.c"
   904 ;; Parameters:    Size  Location     Type
   905 ;;  a               2   15[BANK0 ] int 
   906 ;;  b               1   17[BANK0 ] PTR int 
   907 ;;		 -> VALOR(6), 
   908 ;; Auto vars:     Size  Location     Type
   909 ;;		None
   910 ;; Return value:  Size  Location     Type
   911 ;;                  1    wreg      void 
   912 ;; Registers used:
   913 ;;		wreg, fsr0l, fsr0h, status,2, status,0, pclath, cstack
   914 ;; Tracked objects:
   915 ;;		On entry : 0/0
   916 ;;		On exit  : 0/0
   917 ;;		Unchanged: 0/0
   918 ;; Data sizes:     COMMON   BANK0   BANK1   BANK3   BANK2
   919 ;;      Params:         0       3       0       0       0
   920 ;;      Locals:         0       0       0       0       0
   921 ;;      Temps:          0       6       0       0       0
   922 ;;      Totals:         0       9       0       0       0
   923 ;;Total ram usage:        9 bytes
   924 ;; Hardware stack levels used: 1
   925 ;; Hardware stack levels required when called: 4
   926 ;; This function calls:
   927 ;;		___awdiv
   928 ;;		___wmul
   929 ;; This function is called by:
   930 ;;		_main
   931 ;; This function uses a non-reentrant model
   932 ;;
   933                           
   934  04D9                     _separacion:	
   935                           ;psect for function _separacion
   936                           
   937  04D9                     l1352:	
   938                           ;incstack = 0
   939                           ; Regs used in _separacion: [wreg-fsr0h+status,2+status,0+pclath+cstack]
   940                           
   941                           
   942                           ;main.c: 155:     b[1] = a/100;
   943  04D9  3064               	movlw	100
   944  04DA  1283               	bcf	3,5	;RP0=0, select bank0
   945  04DB  1303               	bcf	3,6	;RP1=0, select bank0
   946  04DC  00A6               	movwf	___awdiv@divisor
   947  04DD  3000               	movlw	0
   948  04DE  00A7               	movwf	___awdiv@divisor+1
   949  04DF  0830               	movf	separacion@a+1,w
   950  04E0  00A9               	movwf	___awdiv@dividend+1
   951  04E1  082F               	movf	separacion@a,w
   952  04E2  00A8               	movwf	___awdiv@dividend
   953  04E3  120A  118A  25E3  120A  118A  	fcall	___awdiv
   954  04E8  1283               	bcf	3,5	;RP0=0, select bank0
   955  04E9  1303               	bcf	3,6	;RP1=0, select bank0
   956  04EA  0831               	movf	separacion@b,w
   957  04EB  3E02               	addlw	2
   958  04EC  0084               	movwf	4
   959  04ED  0826               	movf	?___awdiv,w
   960  04EE  1383               	bcf	3,7	;select IRP bank0
   961  04EF  0080               	movwf	0
   962  04F0  0A84               	incf	4,f
   963  04F1  0827               	movf	?___awdiv+1,w
   964  04F2  0080               	movwf	0
   965                           
   966                           ;main.c: 156:     b[2] = (a-(100*(b[1])))/10;
   967  04F3  300A               	movlw	10
   968  04F4  00A6               	movwf	___awdiv@divisor
   969  04F5  3000               	movlw	0
   970  04F6  00A7               	movwf	___awdiv@divisor+1
   971  04F7  0831               	movf	separacion@b,w
   972  04F8  3E02               	addlw	2
   973  04F9  0084               	movwf	4
   974  04FA  0800               	movf	0,w
   975  04FB  00A0               	movwf	___wmul@multiplier
   976  04FC  0A84               	incf	4,f
   977  04FD  0800               	movf	0,w
   978  04FE  00A1               	movwf	___wmul@multiplier+1
   979  04FF  309C               	movlw	156
   980  0500  00A2               	movwf	___wmul@multiplicand
   981  0501  30FF               	movlw	255
   982  0502  00A3               	movwf	___wmul@multiplicand+1
   983  0503  120A  118A  27B1  120A  118A  	fcall	___wmul
   984  0508  1283               	bcf	3,5	;RP0=0, select bank0
   985  0509  1303               	bcf	3,6	;RP1=0, select bank0
   986  050A  082F               	movf	separacion@a,w
   987  050B  0720               	addwf	?___wmul,w
   988  050C  00A8               	movwf	___awdiv@dividend
   989  050D  0830               	movf	separacion@a+1,w
   990  050E  1803               	skipnc
   991  050F  0A30               	incf	separacion@a+1,w
   992  0510  0721               	addwf	?___wmul+1,w
   993  0511  00A9               	movwf	___awdiv@dividend+1
   994  0512  120A  118A  25E3  120A  118A  	fcall	___awdiv
   995  0517  1283               	bcf	3,5	;RP0=0, select bank0
   996  0518  1303               	bcf	3,6	;RP1=0, select bank0
   997  0519  0831               	movf	separacion@b,w
   998  051A  3E04               	addlw	4
   999  051B  0084               	movwf	4
  1000  051C  0826               	movf	?___awdiv,w
  1001  051D  1383               	bcf	3,7	;select IRP bank0
  1002  051E  0080               	movwf	0
  1003  051F  0A84               	incf	4,f
  1004  0520  0827               	movf	?___awdiv+1,w
  1005  0521  0080               	movwf	0
  1006                           
  1007                           ;main.c: 157:     b[3] = (a-(100*(b[1])+10*(b[2])));
  1008  0522  0831               	movf	separacion@b,w
  1009  0523  3E02               	addlw	2
  1010  0524  0084               	movwf	4
  1011  0525  0800               	movf	0,w
  1012  0526  00A0               	movwf	___wmul@multiplier
  1013  0527  0A84               	incf	4,f
  1014  0528  0800               	movf	0,w
  1015  0529  00A1               	movwf	___wmul@multiplier+1
  1016  052A  309C               	movlw	156
  1017  052B  00A2               	movwf	___wmul@multiplicand
  1018  052C  30FF               	movlw	255
  1019  052D  00A3               	movwf	___wmul@multiplicand+1
  1020  052E  120A  118A  27B1  120A  118A  	fcall	___wmul
  1021  0533  1283               	bcf	3,5	;RP0=0, select bank0
  1022  0534  1303               	bcf	3,6	;RP1=0, select bank0
  1023  0535  0820               	movf	?___wmul,w
  1024  0536  00B2               	movwf	??_separacion
  1025  0537  0821               	movf	?___wmul+1,w
  1026  0538  00B3               	movwf	??_separacion+1
  1027  0539  0831               	movf	separacion@b,w
  1028  053A  3E04               	addlw	4
  1029  053B  0084               	movwf	4
  1030  053C  1383               	bcf	3,7	;select IRP bank0
  1031  053D  0800               	movf	0,w
  1032  053E  00A0               	movwf	___wmul@multiplier
  1033  053F  0A84               	incf	4,f
  1034  0540  0800               	movf	0,w
  1035  0541  00A1               	movwf	___wmul@multiplier+1
  1036  0542  30F6               	movlw	246
  1037  0543  00A2               	movwf	___wmul@multiplicand
  1038  0544  30FF               	movlw	255
  1039  0545  00A3               	movwf	___wmul@multiplicand+1
  1040  0546  120A  118A  27B1  120A  118A  	fcall	___wmul
  1041  054B  1283               	bcf	3,5	;RP0=0, select bank0
  1042  054C  1303               	bcf	3,6	;RP1=0, select bank0
  1043  054D  0820               	movf	?___wmul,w
  1044  054E  0732               	addwf	??_separacion,w
  1045  054F  00B4               	movwf	??_separacion+2
  1046  0550  0821               	movf	?___wmul+1,w
  1047  0551  1803               	skipnc
  1048  0552  0A21               	incf	?___wmul+1,w
  1049  0553  0733               	addwf	??_separacion+1,w
  1050  0554  00B5               	movwf	??_separacion+3
  1051  0555  082F               	movf	separacion@a,w
  1052  0556  0734               	addwf	??_separacion+2,w
  1053  0557  00B6               	movwf	??_separacion+4
  1054  0558  0830               	movf	separacion@a+1,w
  1055  0559  1803               	skipnc
  1056  055A  0A30               	incf	separacion@a+1,w
  1057  055B  0735               	addwf	??_separacion+3,w
  1058  055C  00B7               	movwf	??_separacion+5
  1059  055D  0831               	movf	separacion@b,w
  1060  055E  3E06               	addlw	6
  1061  055F  0084               	movwf	4
  1062  0560  0836               	movf	??_separacion+4,w
  1063  0561  1383               	bcf	3,7	;select IRP bank0
  1064  0562  0080               	movwf	0
  1065  0563  0A84               	incf	4,f
  1066  0564  0837               	movf	??_separacion+5,w
  1067  0565  0080               	movwf	0
  1068  0566                     l88:
  1069  0566  0008               	return
  1070  0567                     __end_of_separacion:
  1071                           
  1072                           	psect	text3
  1073  07B1                     __ptext3:	
  1074 ;; *************** function ___wmul *****************
  1075 ;; Defined at:
  1076 ;;		line 15 in file "C:\Program Files\Microchip\xc8\v2.35\pic\sources\c90\common\Umul16.c"
  1077 ;; Parameters:    Size  Location     Type
  1078 ;;  multiplier      2    0[BANK0 ] unsigned int 
  1079 ;;  multiplicand    2    2[BANK0 ] unsigned int 
  1080 ;; Auto vars:     Size  Location     Type
  1081 ;;  product         2    4[BANK0 ] unsigned int 
  1082 ;; Return value:  Size  Location     Type
  1083 ;;                  2    0[BANK0 ] unsigned int 
  1084 ;; Registers used:
  1085 ;;		wreg, status,2, status,0
  1086 ;; Tracked objects:
  1087 ;;		On entry : 0/0
  1088 ;;		On exit  : 0/0
  1089 ;;		Unchanged: 0/0
  1090 ;; Data sizes:     COMMON   BANK0   BANK1   BANK3   BANK2
  1091 ;;      Params:         0       4       0       0       0
  1092 ;;      Locals:         0       2       0       0       0
  1093 ;;      Temps:          0       0       0       0       0
  1094 ;;      Totals:         0       6       0       0       0
  1095 ;;Total ram usage:        6 bytes
  1096 ;; Hardware stack levels used: 1
  1097 ;; Hardware stack levels required when called: 3
  1098 ;; This function calls:
  1099 ;;		Nothing
  1100 ;; This function is called by:
  1101 ;;		_separacion
  1102 ;; This function uses a non-reentrant model
  1103 ;;
  1104                           
  1105  07B1                     ___wmul:	
  1106                           ;psect for function ___wmul
  1107                           
  1108  07B1                     l1218:	
  1109                           ;incstack = 0
  1110                           ; Regs used in ___wmul: [wreg+status,2+status,0]
  1111                           
  1112  07B1  1283               	bcf	3,5	;RP0=0, select bank0
  1113  07B2  1303               	bcf	3,6	;RP1=0, select bank0
  1114  07B3  01A4               	clrf	___wmul@product
  1115  07B4  01A5               	clrf	___wmul@product+1
  1116  07B5                     l1220:
  1117  07B5  1C20               	btfss	___wmul@multiplier,0
  1118  07B6  2FB8               	goto	u871
  1119  07B7  2FB9               	goto	u870
  1120  07B8                     u871:
  1121  07B8  2FBF               	goto	l198
  1122  07B9                     u870:
  1123  07B9                     l1222:
  1124  07B9  0822               	movf	___wmul@multiplicand,w
  1125  07BA  07A4               	addwf	___wmul@product,f
  1126  07BB  1803               	skipnc
  1127  07BC  0AA5               	incf	___wmul@product+1,f
  1128  07BD  0823               	movf	___wmul@multiplicand+1,w
  1129  07BE  07A5               	addwf	___wmul@product+1,f
  1130  07BF                     l198:
  1131  07BF  3001               	movlw	1
  1132  07C0                     u885:
  1133  07C0  1003               	clrc
  1134  07C1  0DA2               	rlf	___wmul@multiplicand,f
  1135  07C2  0DA3               	rlf	___wmul@multiplicand+1,f
  1136  07C3  3EFF               	addlw	-1
  1137  07C4  1D03               	skipz
  1138  07C5  2FC0               	goto	u885
  1139  07C6                     l1224:
  1140  07C6  3001               	movlw	1
  1141  07C7                     u895:
  1142  07C7  1003               	clrc
  1143  07C8  0CA1               	rrf	___wmul@multiplier+1,f
  1144  07C9  0CA0               	rrf	___wmul@multiplier,f
  1145  07CA  3EFF               	addlw	-1
  1146  07CB  1D03               	skipz
  1147  07CC  2FC7               	goto	u895
  1148  07CD                     l1226:
  1149  07CD  0820               	movf	___wmul@multiplier,w
  1150  07CE  0421               	iorwf	___wmul@multiplier+1,w
  1151  07CF  1D03               	btfss	3,2
  1152  07D0  2FD2               	goto	u901
  1153  07D1  2FD3               	goto	u900
  1154  07D2                     u901:
  1155  07D2  2FB5               	goto	l1220
  1156  07D3                     u900:
  1157  07D3                     l1228:
  1158  07D3  0825               	movf	___wmul@product+1,w
  1159  07D4  00A1               	movwf	?___wmul+1
  1160  07D5  0824               	movf	___wmul@product,w
  1161  07D6  00A0               	movwf	?___wmul
  1162  07D7                     l200:
  1163  07D7  0008               	return
  1164  07D8                     __end_of___wmul:
  1165                           
  1166                           	psect	text4
  1167  05E3                     __ptext4:	
  1168 ;; *************** function ___awdiv *****************
  1169 ;; Defined at:
  1170 ;;		line 5 in file "C:\Program Files\Microchip\xc8\v2.35\pic\sources\c90\common\awdiv.c"
  1171 ;; Parameters:    Size  Location     Type
  1172 ;;  divisor         2    6[BANK0 ] int 
  1173 ;;  dividend        2    8[BANK0 ] int 
  1174 ;; Auto vars:     Size  Location     Type
  1175 ;;  quotient        2   13[BANK0 ] int 
  1176 ;;  sign            1   12[BANK0 ] unsigned char 
  1177 ;;  counter         1   11[BANK0 ] unsigned char 
  1178 ;; Return value:  Size  Location     Type
  1179 ;;                  2    6[BANK0 ] int 
  1180 ;; Registers used:
  1181 ;;		wreg, status,2, status,0
  1182 ;; Tracked objects:
  1183 ;;		On entry : 0/0
  1184 ;;		On exit  : 0/0
  1185 ;;		Unchanged: 0/0
  1186 ;; Data sizes:     COMMON   BANK0   BANK1   BANK3   BANK2
  1187 ;;      Params:         0       4       0       0       0
  1188 ;;      Locals:         0       4       0       0       0
  1189 ;;      Temps:          0       1       0       0       0
  1190 ;;      Totals:         0       9       0       0       0
  1191 ;;Total ram usage:        9 bytes
  1192 ;; Hardware stack levels used: 1
  1193 ;; Hardware stack levels required when called: 3
  1194 ;; This function calls:
  1195 ;;		Nothing
  1196 ;; This function is called by:
  1197 ;;		_separacion
  1198 ;; This function uses a non-reentrant model
  1199 ;;
  1200                           
  1201  05E3                     ___awdiv:	
  1202                           ;psect for function ___awdiv
  1203                           
  1204  05E3                     l1232:	
  1205                           ;incstack = 0
  1206                           ; Regs used in ___awdiv: [wreg+status,2+status,0]
  1207                           
  1208  05E3  1283               	bcf	3,5	;RP0=0, select bank0
  1209  05E4  1303               	bcf	3,6	;RP1=0, select bank0
  1210  05E5  01AC               	clrf	___awdiv@sign
  1211  05E6                     l1234:
  1212  05E6  1FA7               	btfss	___awdiv@divisor+1,7
  1213  05E7  2DE9               	goto	u911
  1214  05E8  2DEA               	goto	u910
  1215  05E9                     u911:
  1216  05E9  2DF1               	goto	l1240
  1217  05EA                     u910:
  1218  05EA                     l1236:
  1219  05EA  09A6               	comf	___awdiv@divisor,f
  1220  05EB  09A7               	comf	___awdiv@divisor+1,f
  1221  05EC  0AA6               	incf	___awdiv@divisor,f
  1222  05ED  1903               	skipnz
  1223  05EE  0AA7               	incf	___awdiv@divisor+1,f
  1224  05EF                     l1238:
  1225  05EF  01AC               	clrf	___awdiv@sign
  1226  05F0  0AAC               	incf	___awdiv@sign,f
  1227  05F1                     l1240:
  1228  05F1  1FA9               	btfss	___awdiv@dividend+1,7
  1229  05F2  2DF4               	goto	u921
  1230  05F3  2DF5               	goto	u920
  1231  05F4                     u921:
  1232  05F4  2DFE               	goto	l1246
  1233  05F5                     u920:
  1234  05F5                     l1242:
  1235  05F5  09A8               	comf	___awdiv@dividend,f
  1236  05F6  09A9               	comf	___awdiv@dividend+1,f
  1237  05F7  0AA8               	incf	___awdiv@dividend,f
  1238  05F8  1903               	skipnz
  1239  05F9  0AA9               	incf	___awdiv@dividend+1,f
  1240  05FA                     l1244:
  1241  05FA  3001               	movlw	1
  1242  05FB  00AA               	movwf	??___awdiv
  1243  05FC  082A               	movf	??___awdiv,w
  1244  05FD  06AC               	xorwf	___awdiv@sign,f
  1245  05FE                     l1246:
  1246  05FE  01AD               	clrf	___awdiv@quotient
  1247  05FF  01AE               	clrf	___awdiv@quotient+1
  1248  0600                     l1248:
  1249  0600  0826               	movf	___awdiv@divisor,w
  1250  0601  0427               	iorwf	___awdiv@divisor+1,w
  1251  0602  1903               	btfsc	3,2
  1252  0603  2E05               	goto	u931
  1253  0604  2E06               	goto	u930
  1254  0605                     u931:
  1255  0605  2E3D               	goto	l1268
  1256  0606                     u930:
  1257  0606                     l1250:
  1258  0606  01AB               	clrf	___awdiv@counter
  1259  0607  0AAB               	incf	___awdiv@counter,f
  1260  0608  2E14               	goto	l1256
  1261  0609                     l1252:
  1262  0609  3001               	movlw	1
  1263  060A                     u945:
  1264  060A  1003               	clrc
  1265  060B  0DA6               	rlf	___awdiv@divisor,f
  1266  060C  0DA7               	rlf	___awdiv@divisor+1,f
  1267  060D  3EFF               	addlw	-1
  1268  060E  1D03               	skipz
  1269  060F  2E0A               	goto	u945
  1270  0610                     l1254:
  1271  0610  3001               	movlw	1
  1272  0611  00AA               	movwf	??___awdiv
  1273  0612  082A               	movf	??___awdiv,w
  1274  0613  07AB               	addwf	___awdiv@counter,f
  1275  0614                     l1256:
  1276  0614  1FA7               	btfss	___awdiv@divisor+1,7
  1277  0615  2E17               	goto	u951
  1278  0616  2E18               	goto	u950
  1279  0617                     u951:
  1280  0617  2E09               	goto	l1252
  1281  0618                     u950:
  1282  0618                     l1258:
  1283  0618  3001               	movlw	1
  1284  0619                     u965:
  1285  0619  1003               	clrc
  1286  061A  0DAD               	rlf	___awdiv@quotient,f
  1287  061B  0DAE               	rlf	___awdiv@quotient+1,f
  1288  061C  3EFF               	addlw	-1
  1289  061D  1D03               	skipz
  1290  061E  2E19               	goto	u965
  1291  061F  0827               	movf	___awdiv@divisor+1,w
  1292  0620  0229               	subwf	___awdiv@dividend+1,w
  1293  0621  1D03               	skipz
  1294  0622  2E25               	goto	u975
  1295  0623  0826               	movf	___awdiv@divisor,w
  1296  0624  0228               	subwf	___awdiv@dividend,w
  1297  0625                     u975:
  1298  0625  1C03               	skipc
  1299  0626  2E28               	goto	u971
  1300  0627  2E29               	goto	u970
  1301  0628                     u971:
  1302  0628  2E30               	goto	l1264
  1303  0629                     u970:
  1304  0629                     l1260:
  1305  0629  0826               	movf	___awdiv@divisor,w
  1306  062A  02A8               	subwf	___awdiv@dividend,f
  1307  062B  0827               	movf	___awdiv@divisor+1,w
  1308  062C  1C03               	skipc
  1309  062D  03A9               	decf	___awdiv@dividend+1,f
  1310  062E  02A9               	subwf	___awdiv@dividend+1,f
  1311  062F                     l1262:
  1312  062F  142D               	bsf	___awdiv@quotient,0
  1313  0630                     l1264:
  1314  0630  3001               	movlw	1
  1315  0631                     u985:
  1316  0631  1003               	clrc
  1317  0632  0CA7               	rrf	___awdiv@divisor+1,f
  1318  0633  0CA6               	rrf	___awdiv@divisor,f
  1319  0634  3EFF               	addlw	-1
  1320  0635  1D03               	skipz
  1321  0636  2E31               	goto	u985
  1322  0637                     l1266:
  1323  0637  3001               	movlw	1
  1324  0638  02AB               	subwf	___awdiv@counter,f
  1325  0639  1D03               	btfss	3,2
  1326  063A  2E3C               	goto	u991
  1327  063B  2E3D               	goto	u990
  1328  063C                     u991:
  1329  063C  2E18               	goto	l1258
  1330  063D                     u990:
  1331  063D                     l1268:
  1332  063D  082C               	movf	___awdiv@sign,w
  1333  063E  1903               	btfsc	3,2
  1334  063F  2E41               	goto	u1001
  1335  0640  2E42               	goto	u1000
  1336  0641                     u1001:
  1337  0641  2E47               	goto	l1272
  1338  0642                     u1000:
  1339  0642                     l1270:
  1340  0642  09AD               	comf	___awdiv@quotient,f
  1341  0643  09AE               	comf	___awdiv@quotient+1,f
  1342  0644  0AAD               	incf	___awdiv@quotient,f
  1343  0645  1903               	skipnz
  1344  0646  0AAE               	incf	___awdiv@quotient+1,f
  1345  0647                     l1272:
  1346  0647  082E               	movf	___awdiv@quotient+1,w
  1347  0648  00A7               	movwf	?___awdiv+1
  1348  0649  082D               	movf	___awdiv@quotient,w
  1349  064A  00A6               	movwf	?___awdiv
  1350  064B                     l351:
  1351  064B  0008               	return
  1352  064C                     __end_of___awdiv:
  1353                           
  1354                           	psect	text5
  1355  0382                     __ptext5:	
  1356 ;; *************** function ___xxtofl *****************
  1357 ;; Defined at:
  1358 ;;		line 10 in file "C:\Program Files\Microchip\xc8\v2.35\pic\sources\c90\common\xxtofl.c"
  1359 ;; Parameters:    Size  Location     Type
  1360 ;;  sign            1    wreg     unsigned char 
  1361 ;;  val             4    0[BANK0 ] long 
  1362 ;; Auto vars:     Size  Location     Type
  1363 ;;  sign            1    8[BANK0 ] unsigned char 
  1364 ;;  arg             4   10[BANK0 ] unsigned long 
  1365 ;;  exp             1    9[BANK0 ] unsigned char 
  1366 ;; Return value:  Size  Location     Type
  1367 ;;                  4    0[BANK0 ] unsigned char 
  1368 ;; Registers used:
  1369 ;;		wreg, status,2, status,0
  1370 ;; Tracked objects:
  1371 ;;		On entry : 0/0
  1372 ;;		On exit  : 0/0
  1373 ;;		Unchanged: 0/0
  1374 ;; Data sizes:     COMMON   BANK0   BANK1   BANK3   BANK2
  1375 ;;      Params:         0       4       0       0       0
  1376 ;;      Locals:         0       6       0       0       0
  1377 ;;      Temps:          0       4       0       0       0
  1378 ;;      Totals:         0      14       0       0       0
  1379 ;;Total ram usage:       14 bytes
  1380 ;; Hardware stack levels used: 1
  1381 ;; Hardware stack levels required when called: 3
  1382 ;; This function calls:
  1383 ;;		Nothing
  1384 ;; This function is called by:
  1385 ;;		_main
  1386 ;; This function uses a non-reentrant model
  1387 ;;
  1388                           
  1389  0382                     ___xxtofl:	
  1390                           ;psect for function ___xxtofl
  1391                           
  1392                           
  1393                           ;incstack = 0
  1394                           ; Regs used in ___xxtofl: [wreg+status,2+status,0]
  1395                           ;___xxtofl@sign stored from wreg
  1396  0382  1283               	bcf	3,5	;RP0=0, select bank0
  1397  0383  1303               	bcf	3,6	;RP1=0, select bank0
  1398  0384  00A8               	movwf	___xxtofl@sign
  1399  0385                     l1532:
  1400  0385  0828               	movf	___xxtofl@sign,w
  1401  0386  1903               	btfsc	3,2
  1402  0387  2B89               	goto	u1511
  1403  0388  2B8A               	goto	u1510
  1404  0389                     u1511:
  1405  0389  2B9E               	goto	l1538
  1406  038A                     u1510:
  1407  038A                     l1534:
  1408  038A  1FA3               	btfss	___xxtofl@val+3,7
  1409  038B  2B8D               	goto	u1521
  1410  038C  2B8E               	goto	u1520
  1411  038D                     u1521:
  1412  038D  2B9E               	goto	l1538
  1413  038E                     u1520:
  1414  038E                     l1536:
  1415  038E  0920               	comf	___xxtofl@val,w
  1416  038F  00AA               	movwf	___xxtofl@arg
  1417  0390  0921               	comf	___xxtofl@val+1,w
  1418  0391  00AB               	movwf	___xxtofl@arg+1
  1419  0392  0922               	comf	___xxtofl@val+2,w
  1420  0393  00AC               	movwf	___xxtofl@arg+2
  1421  0394  0923               	comf	___xxtofl@val+3,w
  1422  0395  00AD               	movwf	___xxtofl@arg+3
  1423  0396  0AAA               	incf	___xxtofl@arg,f
  1424  0397  1903               	skipnz
  1425  0398  0AAB               	incf	___xxtofl@arg+1,f
  1426  0399  1903               	skipnz
  1427  039A  0AAC               	incf	___xxtofl@arg+2,f
  1428  039B  1903               	skipnz
  1429  039C  0AAD               	incf	___xxtofl@arg+3,f
  1430  039D  2BA6               	goto	l631
  1431  039E                     l1538:
  1432  039E  0823               	movf	___xxtofl@val+3,w
  1433  039F  00AD               	movwf	___xxtofl@arg+3
  1434  03A0  0822               	movf	___xxtofl@val+2,w
  1435  03A1  00AC               	movwf	___xxtofl@arg+2
  1436  03A2  0821               	movf	___xxtofl@val+1,w
  1437  03A3  00AB               	movwf	___xxtofl@arg+1
  1438  03A4  0820               	movf	___xxtofl@val,w
  1439  03A5  00AA               	movwf	___xxtofl@arg
  1440  03A6                     l631:
  1441  03A6  0823               	movf	___xxtofl@val+3,w
  1442  03A7  0422               	iorwf	___xxtofl@val+2,w
  1443  03A8  0421               	iorwf	___xxtofl@val+1,w
  1444  03A9  0420               	iorwf	___xxtofl@val,w
  1445  03AA  1D03               	skipz
  1446  03AB  2BAD               	goto	u1531
  1447  03AC  2BAE               	goto	u1530
  1448  03AD                     u1531:
  1449  03AD  2BB7               	goto	l1544
  1450  03AE                     u1530:
  1451  03AE                     l1540:
  1452  03AE  3000               	movlw	0
  1453  03AF  00A3               	movwf	?___xxtofl+3
  1454  03B0  3000               	movlw	0
  1455  03B1  00A2               	movwf	?___xxtofl+2
  1456  03B2  3000               	movlw	0
  1457  03B3  00A1               	movwf	?___xxtofl+1
  1458  03B4  3000               	movlw	0
  1459  03B5  00A0               	movwf	?___xxtofl
  1460  03B6  2C3D               	goto	l633
  1461  03B7                     l1544:
  1462  03B7  3096               	movlw	150
  1463  03B8  00A4               	movwf	??___xxtofl
  1464  03B9  0824               	movf	??___xxtofl,w
  1465  03BA  00A9               	movwf	___xxtofl@exp
  1466  03BB  2BC9               	goto	l1548
  1467  03BC                     l1546:
  1468  03BC  3001               	movlw	1
  1469  03BD  00A4               	movwf	??___xxtofl
  1470  03BE  0824               	movf	??___xxtofl,w
  1471  03BF  07A9               	addwf	___xxtofl@exp,f
  1472  03C0  3001               	movlw	1
  1473  03C1                     u1545:
  1474  03C1  1003               	clrc
  1475  03C2  0CAD               	rrf	___xxtofl@arg+3,f
  1476  03C3  0CAC               	rrf	___xxtofl@arg+2,f
  1477  03C4  0CAB               	rrf	___xxtofl@arg+1,f
  1478  03C5  0CAA               	rrf	___xxtofl@arg,f
  1479  03C6  3EFF               	addlw	-1
  1480  03C7  1D03               	skipz
  1481  03C8  2BC1               	goto	u1545
  1482  03C9                     l1548:
  1483  03C9  30FE               	movlw	254
  1484  03CA  052D               	andwf	___xxtofl@arg+3,w
  1485  03CB  1D03               	btfss	3,2
  1486  03CC  2BCE               	goto	u1551
  1487  03CD  2BCF               	goto	u1550
  1488  03CE                     u1551:
  1489  03CE  2BBC               	goto	l1546
  1490  03CF                     u1550:
  1491  03CF  2BEB               	goto	l637
  1492  03D0                     l1550:
  1493  03D0  3001               	movlw	1
  1494  03D1  00A4               	movwf	??___xxtofl
  1495  03D2  0824               	movf	??___xxtofl,w
  1496  03D3  07A9               	addwf	___xxtofl@exp,f
  1497  03D4                     l1552:
  1498  03D4  3001               	movlw	1
  1499  03D5  07AA               	addwf	___xxtofl@arg,f
  1500  03D6  3000               	movlw	0
  1501  03D7  1803               	skipnc
  1502  03D8  3001               	movlw	1
  1503  03D9  07AB               	addwf	___xxtofl@arg+1,f
  1504  03DA  3000               	movlw	0
  1505  03DB  1803               	skipnc
  1506  03DC  3001               	movlw	1
  1507  03DD  07AC               	addwf	___xxtofl@arg+2,f
  1508  03DE  3000               	movlw	0
  1509  03DF  1803               	skipnc
  1510  03E0  3001               	movlw	1
  1511  03E1  07AD               	addwf	___xxtofl@arg+3,f
  1512  03E2                     l1554:
  1513  03E2  3001               	movlw	1
  1514  03E3                     u1565:
  1515  03E3  1003               	clrc
  1516  03E4  0CAD               	rrf	___xxtofl@arg+3,f
  1517  03E5  0CAC               	rrf	___xxtofl@arg+2,f
  1518  03E6  0CAB               	rrf	___xxtofl@arg+1,f
  1519  03E7  0CAA               	rrf	___xxtofl@arg,f
  1520  03E8  3EFF               	addlw	-1
  1521  03E9  1D03               	skipz
  1522  03EA  2BE3               	goto	u1565
  1523  03EB                     l637:
  1524  03EB  30FF               	movlw	255
  1525  03EC  052D               	andwf	___xxtofl@arg+3,w
  1526  03ED  1D03               	btfss	3,2
  1527  03EE  2BF0               	goto	u1571
  1528  03EF  2BF1               	goto	u1570
  1529  03F0                     u1571:
  1530  03F0  2BD0               	goto	l1550
  1531  03F1                     u1570:
  1532  03F1  2BFD               	goto	l1558
  1533  03F2                     l1556:
  1534  03F2  3001               	movlw	1
  1535  03F3  02A9               	subwf	___xxtofl@exp,f
  1536  03F4  3001               	movlw	1
  1537  03F5  00A4               	movwf	??___xxtofl
  1538  03F6                     u1585:
  1539  03F6  1003               	clrc
  1540  03F7  0DAA               	rlf	___xxtofl@arg,f
  1541  03F8  0DAB               	rlf	___xxtofl@arg+1,f
  1542  03F9  0DAC               	rlf	___xxtofl@arg+2,f
  1543  03FA  0DAD               	rlf	___xxtofl@arg+3,f
  1544  03FB  0BA4               	decfsz	??___xxtofl,f
  1545  03FC  2BF6               	goto	u1585
  1546  03FD                     l1558:
  1547  03FD  1BAC               	btfsc	___xxtofl@arg+2,7
  1548  03FE  2C00               	goto	u1591
  1549  03FF  2C01               	goto	u1590
  1550  0400                     u1591:
  1551  0400  2C07               	goto	l644
  1552  0401                     u1590:
  1553  0401                     l1560:
  1554  0401  3002               	movlw	2
  1555  0402  0229               	subwf	___xxtofl@exp,w
  1556  0403  1803               	skipnc
  1557  0404  2C06               	goto	u1601
  1558  0405  2C07               	goto	u1600
  1559  0406                     u1601:
  1560  0406  2BF2               	goto	l1556
  1561  0407                     u1600:
  1562  0407                     l644:
  1563  0407  1829               	btfsc	___xxtofl@exp,0
  1564  0408  2C0A               	goto	u1611
  1565  0409  2C0B               	goto	u1610
  1566  040A                     u1611:
  1567  040A  2C13               	goto	l645
  1568  040B                     u1610:
  1569  040B                     l1562:
  1570  040B  30FF               	movlw	255
  1571  040C  05AA               	andwf	___xxtofl@arg,f
  1572  040D  30FF               	movlw	255
  1573  040E  05AB               	andwf	___xxtofl@arg+1,f
  1574  040F  307F               	movlw	127
  1575  0410  05AC               	andwf	___xxtofl@arg+2,f
  1576  0411  30FF               	movlw	255
  1577  0412  05AD               	andwf	___xxtofl@arg+3,f
  1578  0413                     l645:
  1579  0413  1003               	clrc
  1580  0414  0CA9               	rrf	___xxtofl@exp,f
  1581  0415                     l1564:
  1582  0415  0829               	movf	___xxtofl@exp,w
  1583  0416  00A4               	movwf	??___xxtofl
  1584  0417  01A5               	clrf	??___xxtofl+1
  1585  0418  01A6               	clrf	??___xxtofl+2
  1586  0419  01A7               	clrf	??___xxtofl+3
  1587  041A  3018               	movlw	24
  1588  041B                     u1625:
  1589  041B  1003               	clrc
  1590  041C  0DA4               	rlf	??___xxtofl,f
  1591  041D  0DA5               	rlf	??___xxtofl+1,f
  1592  041E  0DA6               	rlf	??___xxtofl+2,f
  1593  041F  0DA7               	rlf	??___xxtofl+3,f
  1594  0420                     u1620:
  1595  0420  3EFF               	addlw	-1
  1596  0421  1D03               	skipz
  1597  0422  2C1B               	goto	u1625
  1598  0423  0824               	movf	??___xxtofl,w
  1599  0424  04AA               	iorwf	___xxtofl@arg,f
  1600  0425  0825               	movf	??___xxtofl+1,w
  1601  0426  04AB               	iorwf	___xxtofl@arg+1,f
  1602  0427  0826               	movf	??___xxtofl+2,w
  1603  0428  04AC               	iorwf	___xxtofl@arg+2,f
  1604  0429  0827               	movf	??___xxtofl+3,w
  1605  042A  04AD               	iorwf	___xxtofl@arg+3,f
  1606  042B                     l1566:
  1607  042B  0828               	movf	___xxtofl@sign,w
  1608  042C  1903               	btfsc	3,2
  1609  042D  2C2F               	goto	u1631
  1610  042E  2C30               	goto	u1630
  1611  042F                     u1631:
  1612  042F  2C35               	goto	l1572
  1613  0430                     u1630:
  1614  0430                     l1568:
  1615  0430  1FA3               	btfss	___xxtofl@val+3,7
  1616  0431  2C33               	goto	u1641
  1617  0432  2C34               	goto	u1640
  1618  0433                     u1641:
  1619  0433  2C35               	goto	l1572
  1620  0434                     u1640:
  1621  0434                     l1570:
  1622  0434  17AD               	bsf	___xxtofl@arg+3,7
  1623  0435                     l1572:
  1624  0435  082D               	movf	___xxtofl@arg+3,w
  1625  0436  00A3               	movwf	?___xxtofl+3
  1626  0437  082C               	movf	___xxtofl@arg+2,w
  1627  0438  00A2               	movwf	?___xxtofl+2
  1628  0439  082B               	movf	___xxtofl@arg+1,w
  1629  043A  00A1               	movwf	?___xxtofl+1
  1630  043B  082A               	movf	___xxtofl@arg,w
  1631  043C  00A0               	movwf	?___xxtofl
  1632  043D                     l633:
  1633  043D  0008               	return
  1634  043E                     __end_of___xxtofl:
  1635                           
  1636                           	psect	text6
  1637  0567                     __ptext6:	
  1638 ;; *************** function ___fltol *****************
  1639 ;; Defined at:
  1640 ;;		line 43 in file "C:\Program Files\Microchip\xc8\v2.35\pic\sources\c90\common\fltol.c"
  1641 ;; Parameters:    Size  Location     Type
  1642 ;;  f1              4   40[BANK0 ] unsigned char 
  1643 ;; Auto vars:     Size  Location     Type
  1644 ;;  exp1            1   50[BANK0 ] unsigned char 
  1645 ;;  sign1           1   49[BANK0 ] unsigned char 
  1646 ;; Return value:  Size  Location     Type
  1647 ;;                  4   40[BANK0 ] long 
  1648 ;; Registers used:
  1649 ;;		wreg, status,2, status,0
  1650 ;; Tracked objects:
  1651 ;;		On entry : 0/0
  1652 ;;		On exit  : 0/0
  1653 ;;		Unchanged: 0/0
  1654 ;; Data sizes:     COMMON   BANK0   BANK1   BANK3   BANK2
  1655 ;;      Params:         0       4       0       0       0
  1656 ;;      Locals:         0       2       0       0       0
  1657 ;;      Temps:          0       5       0       0       0
  1658 ;;      Totals:         0      11       0       0       0
  1659 ;;Total ram usage:       11 bytes
  1660 ;; Hardware stack levels used: 1
  1661 ;; Hardware stack levels required when called: 3
  1662 ;; This function calls:
  1663 ;;		Nothing
  1664 ;; This function is called by:
  1665 ;;		_main
  1666 ;; This function uses a non-reentrant model
  1667 ;;
  1668                           
  1669  0567                     ___fltol:	
  1670                           ;psect for function ___fltol
  1671                           
  1672  0567                     l1356:	
  1673                           ;incstack = 0
  1674                           ; Regs used in ___fltol: [wreg+status,2+status,0]
  1675                           
  1676  0567  1003               	clrc
  1677  0568  1283               	bcf	3,5	;RP0=0, select bank0
  1678  0569  1303               	bcf	3,6	;RP1=0, select bank0
  1679  056A  0D4A               	rlf	___fltol@f1+2,w
  1680  056B  0D4B               	rlf	___fltol@f1+3,w
  1681  056C  00CC               	movwf	??___fltol
  1682  056D  084C               	movf	??___fltol,w
  1683  056E  00D2               	movwf	___fltol@exp1
  1684  056F  0852               	movf	___fltol@exp1,w
  1685  0570  1D03               	btfss	3,2
  1686  0571  2D73               	goto	u1041
  1687  0572  2D74               	goto	u1040
  1688  0573                     u1041:
  1689  0573  2D7D               	goto	l1362
  1690  0574                     u1040:
  1691  0574                     l1358:
  1692  0574  3000               	movlw	0
  1693  0575  00CB               	movwf	?___fltol+3
  1694  0576  3000               	movlw	0
  1695  0577  00CA               	movwf	?___fltol+2
  1696  0578  3000               	movlw	0
  1697  0579  00C9               	movwf	?___fltol+1
  1698  057A  3000               	movlw	0
  1699  057B  00C8               	movwf	?___fltol
  1700  057C  2DE2               	goto	l384
  1701  057D                     l1362:
  1702  057D  0848               	movf	___fltol@f1,w
  1703  057E  00CC               	movwf	??___fltol
  1704  057F  0849               	movf	___fltol@f1+1,w
  1705  0580  00CD               	movwf	??___fltol+1
  1706  0581  084A               	movf	___fltol@f1+2,w
  1707  0582  00CE               	movwf	??___fltol+2
  1708  0583  084B               	movf	___fltol@f1+3,w
  1709  0584  00CF               	movwf	??___fltol+3
  1710  0585  301F               	movlw	31
  1711  0586                     u1055:
  1712  0586  1003               	clrc
  1713  0587  0CCF               	rrf	??___fltol+3,f
  1714  0588  0CCE               	rrf	??___fltol+2,f
  1715  0589  0CCD               	rrf	??___fltol+1,f
  1716  058A  0CCC               	rrf	??___fltol,f
  1717  058B                     u1050:
  1718  058B  3EFF               	addlw	-1
  1719  058C  1D03               	skipz
  1720  058D  2D86               	goto	u1055
  1721  058E  084C               	movf	??___fltol,w
  1722  058F  00D0               	movwf	??___fltol+4
  1723  0590  0850               	movf	??___fltol+4,w
  1724  0591  00D1               	movwf	___fltol@sign1
  1725  0592                     l1364:
  1726  0592  17CA               	bsf	___fltol@f1+2,7
  1727  0593                     l1366:
  1728  0593  30FF               	movlw	255
  1729  0594  05C8               	andwf	___fltol@f1,f
  1730  0595  30FF               	movlw	255
  1731  0596  05C9               	andwf	___fltol@f1+1,f
  1732  0597  30FF               	movlw	255
  1733  0598  05CA               	andwf	___fltol@f1+2,f
  1734  0599  3000               	movlw	0
  1735  059A  05CB               	andwf	___fltol@f1+3,f
  1736  059B                     l1368:
  1737  059B  3096               	movlw	150
  1738  059C  02D2               	subwf	___fltol@exp1,f
  1739  059D                     l1370:
  1740  059D  1FD2               	btfss	___fltol@exp1,7
  1741  059E  2DA0               	goto	u1061
  1742  059F  2DA1               	goto	u1060
  1743  05A0                     u1061:
  1744  05A0  2DBB               	goto	l1380
  1745  05A1                     u1060:
  1746  05A1                     l1372:
  1747  05A1  0852               	movf	___fltol@exp1,w
  1748  05A2  3A80               	xorlw	128
  1749  05A3  3E97               	addlw	151
  1750  05A4  1803               	skipnc
  1751  05A5  2DA7               	goto	u1071
  1752  05A6  2DA8               	goto	u1070
  1753  05A7                     u1071:
  1754  05A7  2DA9               	goto	l1378
  1755  05A8                     u1070:
  1756  05A8  2D74               	goto	l1358
  1757  05A9                     l1378:
  1758  05A9  3001               	movlw	1
  1759  05AA                     u1085:
  1760  05AA  1003               	clrc
  1761  05AB  0CCB               	rrf	___fltol@f1+3,f
  1762  05AC  0CCA               	rrf	___fltol@f1+2,f
  1763  05AD  0CC9               	rrf	___fltol@f1+1,f
  1764  05AE  0CC8               	rrf	___fltol@f1,f
  1765  05AF  3EFF               	addlw	-1
  1766  05B0  1D03               	skipz
  1767  05B1  2DAA               	goto	u1085
  1768  05B2  3001               	movlw	1
  1769  05B3  00CC               	movwf	??___fltol
  1770  05B4  084C               	movf	??___fltol,w
  1771  05B5  07D2               	addwf	___fltol@exp1,f
  1772  05B6  1D03               	btfss	3,2
  1773  05B7  2DB9               	goto	u1091
  1774  05B8  2DBA               	goto	u1090
  1775  05B9                     u1091:
  1776  05B9  2DA9               	goto	l1378
  1777  05BA                     u1090:
  1778  05BA  2DD2               	goto	l1388
  1779  05BB                     l1380:
  1780  05BB  3020               	movlw	32
  1781  05BC  0252               	subwf	___fltol@exp1,w
  1782  05BD  1C03               	skipc
  1783  05BE  2DC0               	goto	u1101
  1784  05BF  2DC1               	goto	u1100
  1785  05C0                     u1101:
  1786  05C0  2DCD               	goto	l391
  1787  05C1                     u1100:
  1788  05C1  2D74               	goto	l1358
  1789  05C2                     l1386:
  1790  05C2  3001               	movlw	1
  1791  05C3  00CC               	movwf	??___fltol
  1792  05C4                     u1115:
  1793  05C4  1003               	clrc
  1794  05C5  0DC8               	rlf	___fltol@f1,f
  1795  05C6  0DC9               	rlf	___fltol@f1+1,f
  1796  05C7  0DCA               	rlf	___fltol@f1+2,f
  1797  05C8  0DCB               	rlf	___fltol@f1+3,f
  1798  05C9  0BCC               	decfsz	??___fltol,f
  1799  05CA  2DC4               	goto	u1115
  1800  05CB  3001               	movlw	1
  1801  05CC  02D2               	subwf	___fltol@exp1,f
  1802  05CD                     l391:
  1803  05CD  0852               	movf	___fltol@exp1,w
  1804  05CE  1D03               	btfss	3,2
  1805  05CF  2DD1               	goto	u1121
  1806  05D0  2DD2               	goto	u1120
  1807  05D1                     u1121:
  1808  05D1  2DC2               	goto	l1386
  1809  05D2                     u1120:
  1810  05D2                     l1388:
  1811  05D2  0851               	movf	___fltol@sign1,w
  1812  05D3  1903               	btfsc	3,2
  1813  05D4  2DD6               	goto	u1131
  1814  05D5  2DD7               	goto	u1130
  1815  05D6                     u1131:
  1816  05D6  2DE2               	goto	l394
  1817  05D7                     u1130:
  1818  05D7                     l1390:
  1819  05D7  09C8               	comf	___fltol@f1,f
  1820  05D8  09C9               	comf	___fltol@f1+1,f
  1821  05D9  09CA               	comf	___fltol@f1+2,f
  1822  05DA  09CB               	comf	___fltol@f1+3,f
  1823  05DB  0AC8               	incf	___fltol@f1,f
  1824  05DC  1903               	skipnz
  1825  05DD  0AC9               	incf	___fltol@f1+1,f
  1826  05DE  1903               	skipnz
  1827  05DF  0ACA               	incf	___fltol@f1+2,f
  1828  05E0  1903               	skipnz
  1829  05E1  0ACB               	incf	___fltol@f1+3,f
  1830  05E2                     l394:
  1831  05E2                     l384:
  1832  05E2  0008               	return
  1833  05E3                     __end_of___fltol:
  1834                           
  1835                           	psect	text7
  1836  0021                     __ptext7:	
  1837 ;; *************** function ___flmul *****************
  1838 ;; Defined at:
  1839 ;;		line 8 in file "C:\Program Files\Microchip\xc8\v2.35\pic\sources\c90\common\sprcmul.c"
  1840 ;; Parameters:    Size  Location     Type
  1841 ;;  b               4   14[BANK0 ] long 
  1842 ;;  a               4   18[BANK0 ] long 
  1843 ;; Auto vars:     Size  Location     Type
  1844 ;;  prod            4   34[BANK0 ] struct .
  1845 ;;  grs             4   28[BANK0 ] unsigned long 
  1846 ;;  temp            2   38[BANK0 ] struct .
  1847 ;;  bexp            1   33[BANK0 ] unsigned char 
  1848 ;;  aexp            1   32[BANK0 ] unsigned char 
  1849 ;;  sign            1   27[BANK0 ] unsigned char 
  1850 ;; Return value:  Size  Location     Type
  1851 ;;                  4   14[BANK0 ] unsigned char 
  1852 ;; Registers used:
  1853 ;;		wreg, status,2, status,0, btemp+1, pclath, cstack
  1854 ;; Tracked objects:
  1855 ;;		On entry : 0/0
  1856 ;;		On exit  : 0/0
  1857 ;;		Unchanged: 0/0
  1858 ;; Data sizes:     COMMON   BANK0   BANK1   BANK3   BANK2
  1859 ;;      Params:         0       8       0       0       0
  1860 ;;      Locals:         0      13       0       0       0
  1861 ;;      Temps:          0       5       0       0       0
  1862 ;;      Totals:         0      26       0       0       0
  1863 ;;Total ram usage:       26 bytes
  1864 ;; Hardware stack levels used: 1
  1865 ;; Hardware stack levels required when called: 4
  1866 ;; This function calls:
  1867 ;;		__Umul8_16
  1868 ;; This function is called by:
  1869 ;;		_main
  1870 ;; This function uses a non-reentrant model
  1871 ;;
  1872                           
  1873  0021                     ___flmul:	
  1874                           ;psect for function ___flmul
  1875                           
  1876  0021                     l1392:	
  1877                           ;incstack = 0
  1878                           ; Regs used in ___flmul: [wreg+status,2+status,0+btemp+1+pclath+cstack]
  1879                           
  1880  0021  1283               	bcf	3,5	;RP0=0, select bank0
  1881  0022  1303               	bcf	3,6	;RP1=0, select bank0
  1882  0023  0831               	movf	___flmul@b+3,w
  1883  0024  3980               	andlw	128
  1884  0025  00B6               	movwf	??___flmul
  1885  0026  0836               	movf	??___flmul,w
  1886  0027  00BB               	movwf	___flmul@sign
  1887  0028                     l1394:
  1888  0028  0831               	movf	___flmul@b+3,w
  1889  0029  00B6               	movwf	??___flmul
  1890  002A  0736               	addwf	??___flmul,w
  1891  002B  00B7               	movwf	??___flmul+1
  1892  002C  0837               	movf	??___flmul+1,w
  1893  002D  00C1               	movwf	___flmul@bexp
  1894  002E                     l1396:
  1895  002E  1FB0               	btfss	___flmul@b+2,7
  1896  002F  2831               	goto	u1141
  1897  0030  2832               	goto	u1140
  1898  0031                     u1141:
  1899  0031  2833               	goto	l1400
  1900  0032                     u1140:
  1901  0032                     l1398:
  1902  0032  1441               	bsf	___flmul@bexp,0
  1903  0033                     l1400:
  1904  0033  0841               	movf	___flmul@bexp,w
  1905  0034  1903               	btfsc	3,2
  1906  0035  2837               	goto	u1151
  1907  0036  2838               	goto	u1150
  1908  0037                     u1151:
  1909  0037  2847               	goto	l1408
  1910  0038                     u1150:
  1911  0038                     l1402:
  1912  0038  0A41               	incf	___flmul@bexp,w
  1913  0039  1D03               	btfss	3,2
  1914  003A  283C               	goto	u1161
  1915  003B  283D               	goto	u1160
  1916  003C                     u1161:
  1917  003C  2845               	goto	l1406
  1918  003D                     u1160:
  1919  003D                     l1404:
  1920  003D  3000               	movlw	0
  1921  003E  00B1               	movwf	___flmul@b+3
  1922  003F  3000               	movlw	0
  1923  0040  00B0               	movwf	___flmul@b+2
  1924  0041  3000               	movlw	0
  1925  0042  00AF               	movwf	___flmul@b+1
  1926  0043  3000               	movlw	0
  1927  0044  00AE               	movwf	___flmul@b
  1928  0045                     l1406:
  1929  0045  17B0               	bsf	___flmul@b+2,7
  1930  0046  284F               	goto	l1410
  1931  0047                     l1408:
  1932  0047  3000               	movlw	0
  1933  0048  00B1               	movwf	___flmul@b+3
  1934  0049  3000               	movlw	0
  1935  004A  00B0               	movwf	___flmul@b+2
  1936  004B  3000               	movlw	0
  1937  004C  00AF               	movwf	___flmul@b+1
  1938  004D  3000               	movlw	0
  1939  004E  00AE               	movwf	___flmul@b
  1940  004F                     l1410:
  1941  004F  0835               	movf	___flmul@a+3,w
  1942  0050  3980               	andlw	128
  1943  0051  00B6               	movwf	??___flmul
  1944  0052  0836               	movf	??___flmul,w
  1945  0053  06BB               	xorwf	___flmul@sign,f
  1946  0054                     l1412:
  1947  0054  0835               	movf	___flmul@a+3,w
  1948  0055  00B6               	movwf	??___flmul
  1949  0056  0736               	addwf	??___flmul,w
  1950  0057  00B7               	movwf	??___flmul+1
  1951  0058  0837               	movf	??___flmul+1,w
  1952  0059  00C0               	movwf	___flmul@aexp
  1953  005A                     l1414:
  1954  005A  1FB4               	btfss	___flmul@a+2,7
  1955  005B  285D               	goto	u1171
  1956  005C  285E               	goto	u1170
  1957  005D                     u1171:
  1958  005D  285F               	goto	l1418
  1959  005E                     u1170:
  1960  005E                     l1416:
  1961  005E  1440               	bsf	___flmul@aexp,0
  1962  005F                     l1418:
  1963  005F  0840               	movf	___flmul@aexp,w
  1964  0060  1903               	btfsc	3,2
  1965  0061  2863               	goto	u1181
  1966  0062  2864               	goto	u1180
  1967  0063                     u1181:
  1968  0063  2873               	goto	l1426
  1969  0064                     u1180:
  1970  0064                     l1420:
  1971  0064  0A40               	incf	___flmul@aexp,w
  1972  0065  1D03               	btfss	3,2
  1973  0066  2868               	goto	u1191
  1974  0067  2869               	goto	u1190
  1975  0068                     u1191:
  1976  0068  2871               	goto	l1424
  1977  0069                     u1190:
  1978  0069                     l1422:
  1979  0069  3000               	movlw	0
  1980  006A  00B5               	movwf	___flmul@a+3
  1981  006B  3000               	movlw	0
  1982  006C  00B4               	movwf	___flmul@a+2
  1983  006D  3000               	movlw	0
  1984  006E  00B3               	movwf	___flmul@a+1
  1985  006F  3000               	movlw	0
  1986  0070  00B2               	movwf	___flmul@a
  1987  0071                     l1424:
  1988  0071  17B4               	bsf	___flmul@a+2,7
  1989  0072  287B               	goto	l1428
  1990  0073                     l1426:
  1991  0073  3000               	movlw	0
  1992  0074  00B5               	movwf	___flmul@a+3
  1993  0075  3000               	movlw	0
  1994  0076  00B4               	movwf	___flmul@a+2
  1995  0077  3000               	movlw	0
  1996  0078  00B3               	movwf	___flmul@a+1
  1997  0079  3000               	movlw	0
  1998  007A  00B2               	movwf	___flmul@a
  1999  007B                     l1428:
  2000  007B  0840               	movf	___flmul@aexp,w
  2001  007C  1903               	btfsc	3,2
  2002  007D  287F               	goto	u1201
  2003  007E  2880               	goto	u1200
  2004  007F                     u1201:
  2005  007F  2885               	goto	l1432
  2006  0080                     u1200:
  2007  0080                     l1430:
  2008  0080  0841               	movf	___flmul@bexp,w
  2009  0081  1D03               	btfss	3,2
  2010  0082  2884               	goto	u1211
  2011  0083  2885               	goto	u1210
  2012  0084                     u1211:
  2013  0084  288E               	goto	l1436
  2014  0085                     u1210:
  2015  0085                     l1432:
  2016  0085  3000               	movlw	0
  2017  0086  00B1               	movwf	?___flmul+3
  2018  0087  3000               	movlw	0
  2019  0088  00B0               	movwf	?___flmul+2
  2020  0089  3000               	movlw	0
  2021  008A  00AF               	movwf	?___flmul+1
  2022  008B  3000               	movlw	0
  2023  008C  00AE               	movwf	?___flmul
  2024  008D  2B81               	goto	l587
  2025  008E                     l1436:
  2026  008E  082E               	movf	___flmul@b,w
  2027  008F  00B6               	movwf	??___flmul
  2028  0090  0836               	movf	??___flmul,w
  2029  0091  00A0               	movwf	__Umul8_16@multiplicand
  2030  0092  0834               	movf	___flmul@a+2,w
  2031  0093  120A  118A  2788  120A  118A  	fcall	__Umul8_16
  2032  0098  1283               	bcf	3,5	;RP0=0, select bank0
  2033  0099  1303               	bcf	3,6	;RP1=0, select bank0
  2034  009A  0821               	movf	?__Umul8_16+1,w
  2035  009B  00C7               	movwf	___flmul@temp+1
  2036  009C  0820               	movf	?__Umul8_16,w
  2037  009D  00C6               	movwf	___flmul@temp
  2038  009E                     l1438:
  2039  009E  0846               	movf	___flmul@temp,w
  2040  009F  00B6               	movwf	??___flmul
  2041  00A0  01B7               	clrf	??___flmul+1
  2042  00A1  01B8               	clrf	??___flmul+2
  2043  00A2  01B9               	clrf	??___flmul+3
  2044  00A3  0839               	movf	??___flmul+3,w
  2045  00A4  00BF               	movwf	___flmul@grs+3
  2046  00A5  0838               	movf	??___flmul+2,w
  2047  00A6  00BE               	movwf	___flmul@grs+2
  2048  00A7  0837               	movf	??___flmul+1,w
  2049  00A8  00BD               	movwf	___flmul@grs+1
  2050  00A9  0836               	movf	??___flmul,w
  2051  00AA  00BC               	movwf	___flmul@grs
  2052  00AB                     l1440:
  2053  00AB  0847               	movf	___flmul@temp+1,w
  2054  00AC  00B6               	movwf	??___flmul
  2055  00AD  01B7               	clrf	??___flmul+1
  2056  00AE  01B8               	clrf	??___flmul+2
  2057  00AF  01B9               	clrf	??___flmul+3
  2058  00B0  0839               	movf	??___flmul+3,w
  2059  00B1  00C5               	movwf	___flmul@prod+3
  2060  00B2  0838               	movf	??___flmul+2,w
  2061  00B3  00C4               	movwf	___flmul@prod+2
  2062  00B4  0837               	movf	??___flmul+1,w
  2063  00B5  00C3               	movwf	___flmul@prod+1
  2064  00B6  0836               	movf	??___flmul,w
  2065  00B7  00C2               	movwf	___flmul@prod
  2066  00B8  082F               	movf	___flmul@b+1,w
  2067  00B9  00B6               	movwf	??___flmul
  2068  00BA  0836               	movf	??___flmul,w
  2069  00BB  00A0               	movwf	__Umul8_16@multiplicand
  2070  00BC  0833               	movf	___flmul@a+1,w
  2071  00BD  120A  118A  2788  120A  118A  	fcall	__Umul8_16
  2072  00C2  1283               	bcf	3,5	;RP0=0, select bank0
  2073  00C3  1303               	bcf	3,6	;RP1=0, select bank0
  2074  00C4  0821               	movf	?__Umul8_16+1,w
  2075  00C5  00C7               	movwf	___flmul@temp+1
  2076  00C6  0820               	movf	?__Umul8_16,w
  2077  00C7  00C6               	movwf	___flmul@temp
  2078  00C8                     l1442:
  2079  00C8  0846               	movf	___flmul@temp,w
  2080  00C9  00B6               	movwf	??___flmul
  2081  00CA  01B7               	clrf	??___flmul+1
  2082  00CB  01B8               	clrf	??___flmul+2
  2083  00CC  01B9               	clrf	??___flmul+3
  2084  00CD  0836               	movf	??___flmul,w
  2085  00CE  07BC               	addwf	___flmul@grs,f
  2086  00CF  0837               	movf	??___flmul+1,w
  2087  00D0  1103               	clrz
  2088  00D1  1803               	skipnc
  2089  00D2  3E01               	addlw	1
  2090  00D3  1903               	skipnz
  2091  00D4  28D6               	goto	u1221
  2092  00D5  07BD               	addwf	___flmul@grs+1,f
  2093  00D6                     u1221:
  2094  00D6  0838               	movf	??___flmul+2,w
  2095  00D7  1103               	clrz
  2096  00D8  1803               	skipnc
  2097  00D9  3E01               	addlw	1
  2098  00DA  1903               	skipnz
  2099  00DB  28DD               	goto	u1222
  2100  00DC  07BE               	addwf	___flmul@grs+2,f
  2101  00DD                     u1222:
  2102  00DD  0839               	movf	??___flmul+3,w
  2103  00DE  1103               	clrz
  2104  00DF  1803               	skipnc
  2105  00E0  3E01               	addlw	1
  2106  00E1  1903               	skipnz
  2107  00E2  28E4               	goto	u1223
  2108  00E3  07BF               	addwf	___flmul@grs+3,f
  2109  00E4                     u1223:
  2110  00E4                     l1444:
  2111  00E4  0847               	movf	___flmul@temp+1,w
  2112  00E5  00B6               	movwf	??___flmul
  2113  00E6  01B7               	clrf	??___flmul+1
  2114  00E7  01B8               	clrf	??___flmul+2
  2115  00E8  01B9               	clrf	??___flmul+3
  2116  00E9  0836               	movf	??___flmul,w
  2117  00EA  07C2               	addwf	___flmul@prod,f
  2118  00EB  0837               	movf	??___flmul+1,w
  2119  00EC  1103               	clrz
  2120  00ED  1803               	skipnc
  2121  00EE  3E01               	addlw	1
  2122  00EF  1903               	skipnz
  2123  00F0  28F2               	goto	u1231
  2124  00F1  07C3               	addwf	___flmul@prod+1,f
  2125  00F2                     u1231:
  2126  00F2  0838               	movf	??___flmul+2,w
  2127  00F3  1103               	clrz
  2128  00F4  1803               	skipnc
  2129  00F5  3E01               	addlw	1
  2130  00F6  1903               	skipnz
  2131  00F7  28F9               	goto	u1232
  2132  00F8  07C4               	addwf	___flmul@prod+2,f
  2133  00F9                     u1232:
  2134  00F9  0839               	movf	??___flmul+3,w
  2135  00FA  1103               	clrz
  2136  00FB  1803               	skipnc
  2137  00FC  3E01               	addlw	1
  2138  00FD  1903               	skipnz
  2139  00FE  2900               	goto	u1233
  2140  00FF  07C5               	addwf	___flmul@prod+3,f
  2141  0100                     u1233:
  2142  0100  0830               	movf	___flmul@b+2,w
  2143  0101  00B6               	movwf	??___flmul
  2144  0102  0836               	movf	??___flmul,w
  2145  0103  00A0               	movwf	__Umul8_16@multiplicand
  2146  0104  0832               	movf	___flmul@a,w
  2147  0105  120A  118A  2788  120A  118A  	fcall	__Umul8_16
  2148  010A  1283               	bcf	3,5	;RP0=0, select bank0
  2149  010B  1303               	bcf	3,6	;RP1=0, select bank0
  2150  010C  0821               	movf	?__Umul8_16+1,w
  2151  010D  00C7               	movwf	___flmul@temp+1
  2152  010E  0820               	movf	?__Umul8_16,w
  2153  010F  00C6               	movwf	___flmul@temp
  2154  0110                     l1446:
  2155  0110  0846               	movf	___flmul@temp,w
  2156  0111  00B6               	movwf	??___flmul
  2157  0112  01B7               	clrf	??___flmul+1
  2158  0113  01B8               	clrf	??___flmul+2
  2159  0114  01B9               	clrf	??___flmul+3
  2160  0115  0836               	movf	??___flmul,w
  2161  0116  07BC               	addwf	___flmul@grs,f
  2162  0117  0837               	movf	??___flmul+1,w
  2163  0118  1103               	clrz
  2164  0119  1803               	skipnc
  2165  011A  3E01               	addlw	1
  2166  011B  1903               	skipnz
  2167  011C  291E               	goto	u1241
  2168  011D  07BD               	addwf	___flmul@grs+1,f
  2169  011E                     u1241:
  2170  011E  0838               	movf	??___flmul+2,w
  2171  011F  1103               	clrz
  2172  0120  1803               	skipnc
  2173  0121  3E01               	addlw	1
  2174  0122  1903               	skipnz
  2175  0123  2925               	goto	u1242
  2176  0124  07BE               	addwf	___flmul@grs+2,f
  2177  0125                     u1242:
  2178  0125  0839               	movf	??___flmul+3,w
  2179  0126  1103               	clrz
  2180  0127  1803               	skipnc
  2181  0128  3E01               	addlw	1
  2182  0129  1903               	skipnz
  2183  012A  292C               	goto	u1243
  2184  012B  07BF               	addwf	___flmul@grs+3,f
  2185  012C                     u1243:
  2186  012C                     l1448:
  2187  012C  0847               	movf	___flmul@temp+1,w
  2188  012D  00B6               	movwf	??___flmul
  2189  012E  01B7               	clrf	??___flmul+1
  2190  012F  01B8               	clrf	??___flmul+2
  2191  0130  01B9               	clrf	??___flmul+3
  2192  0131  0836               	movf	??___flmul,w
  2193  0132  07C2               	addwf	___flmul@prod,f
  2194  0133  0837               	movf	??___flmul+1,w
  2195  0134  1103               	clrz
  2196  0135  1803               	skipnc
  2197  0136  3E01               	addlw	1
  2198  0137  1903               	skipnz
  2199  0138  293A               	goto	u1251
  2200  0139  07C3               	addwf	___flmul@prod+1,f
  2201  013A                     u1251:
  2202  013A  0838               	movf	??___flmul+2,w
  2203  013B  1103               	clrz
  2204  013C  1803               	skipnc
  2205  013D  3E01               	addlw	1
  2206  013E  1903               	skipnz
  2207  013F  2941               	goto	u1252
  2208  0140  07C4               	addwf	___flmul@prod+2,f
  2209  0141                     u1252:
  2210  0141  0839               	movf	??___flmul+3,w
  2211  0142  1103               	clrz
  2212  0143  1803               	skipnc
  2213  0144  3E01               	addlw	1
  2214  0145  1903               	skipnz
  2215  0146  2948               	goto	u1253
  2216  0147  07C5               	addwf	___flmul@prod+3,f
  2217  0148                     u1253:
  2218  0148                     l1450:
  2219  0148  3008               	movlw	8
  2220  0149  00B6               	movwf	??___flmul
  2221  014A                     u1265:
  2222  014A  1003               	clrc
  2223  014B  0DBC               	rlf	___flmul@grs,f
  2224  014C  0DBD               	rlf	___flmul@grs+1,f
  2225  014D  0DBE               	rlf	___flmul@grs+2,f
  2226  014E  0DBF               	rlf	___flmul@grs+3,f
  2227  014F  0BB6               	decfsz	??___flmul,f
  2228  0150  294A               	goto	u1265
  2229  0151                     l1452:
  2230  0151  082F               	movf	___flmul@b+1,w
  2231  0152  00B6               	movwf	??___flmul
  2232  0153  0836               	movf	??___flmul,w
  2233  0154  00A0               	movwf	__Umul8_16@multiplicand
  2234  0155  0832               	movf	___flmul@a,w
  2235  0156  120A  118A  2788  120A  118A  	fcall	__Umul8_16
  2236  015B  1283               	bcf	3,5	;RP0=0, select bank0
  2237  015C  1303               	bcf	3,6	;RP1=0, select bank0
  2238  015D  0821               	movf	?__Umul8_16+1,w
  2239  015E  00C7               	movwf	___flmul@temp+1
  2240  015F  0820               	movf	?__Umul8_16,w
  2241  0160  00C6               	movwf	___flmul@temp
  2242  0161                     l1454:
  2243  0161  0846               	movf	___flmul@temp,w
  2244  0162  00B6               	movwf	??___flmul
  2245  0163  0847               	movf	___flmul@temp+1,w
  2246  0164  00B7               	movwf	??___flmul+1
  2247  0165  01B8               	clrf	??___flmul+2
  2248  0166  01B9               	clrf	??___flmul+3
  2249  0167  0836               	movf	??___flmul,w
  2250  0168  07BC               	addwf	___flmul@grs,f
  2251  0169  0837               	movf	??___flmul+1,w
  2252  016A  1103               	clrz
  2253  016B  1803               	skipnc
  2254  016C  3E01               	addlw	1
  2255  016D  1903               	skipnz
  2256  016E  2970               	goto	u1271
  2257  016F  07BD               	addwf	___flmul@grs+1,f
  2258  0170                     u1271:
  2259  0170  0838               	movf	??___flmul+2,w
  2260  0171  1103               	clrz
  2261  0172  1803               	skipnc
  2262  0173  3E01               	addlw	1
  2263  0174  1903               	skipnz
  2264  0175  2977               	goto	u1272
  2265  0176  07BE               	addwf	___flmul@grs+2,f
  2266  0177                     u1272:
  2267  0177  0839               	movf	??___flmul+3,w
  2268  0178  1103               	clrz
  2269  0179  1803               	skipnc
  2270  017A  3E01               	addlw	1
  2271  017B  1903               	skipnz
  2272  017C  297E               	goto	u1273
  2273  017D  07BF               	addwf	___flmul@grs+3,f
  2274  017E                     u1273:
  2275  017E                     l1456:
  2276  017E  082E               	movf	___flmul@b,w
  2277  017F  00B6               	movwf	??___flmul
  2278  0180  0836               	movf	??___flmul,w
  2279  0181  00A0               	movwf	__Umul8_16@multiplicand
  2280  0182  0833               	movf	___flmul@a+1,w
  2281  0183  120A  118A  2788  120A  118A  	fcall	__Umul8_16
  2282  0188  1283               	bcf	3,5	;RP0=0, select bank0
  2283  0189  1303               	bcf	3,6	;RP1=0, select bank0
  2284  018A  0821               	movf	?__Umul8_16+1,w
  2285  018B  00C7               	movwf	___flmul@temp+1
  2286  018C  0820               	movf	?__Umul8_16,w
  2287  018D  00C6               	movwf	___flmul@temp
  2288  018E                     l1458:
  2289  018E  0846               	movf	___flmul@temp,w
  2290  018F  00B6               	movwf	??___flmul
  2291  0190  0847               	movf	___flmul@temp+1,w
  2292  0191  00B7               	movwf	??___flmul+1
  2293  0192  01B8               	clrf	??___flmul+2
  2294  0193  01B9               	clrf	??___flmul+3
  2295  0194  0836               	movf	??___flmul,w
  2296  0195  07BC               	addwf	___flmul@grs,f
  2297  0196  0837               	movf	??___flmul+1,w
  2298  0197  1103               	clrz
  2299  0198  1803               	skipnc
  2300  0199  3E01               	addlw	1
  2301  019A  1903               	skipnz
  2302  019B  299D               	goto	u1281
  2303  019C  07BD               	addwf	___flmul@grs+1,f
  2304  019D                     u1281:
  2305  019D  0838               	movf	??___flmul+2,w
  2306  019E  1103               	clrz
  2307  019F  1803               	skipnc
  2308  01A0  3E01               	addlw	1
  2309  01A1  1903               	skipnz
  2310  01A2  29A4               	goto	u1282
  2311  01A3  07BE               	addwf	___flmul@grs+2,f
  2312  01A4                     u1282:
  2313  01A4  0839               	movf	??___flmul+3,w
  2314  01A5  1103               	clrz
  2315  01A6  1803               	skipnc
  2316  01A7  3E01               	addlw	1
  2317  01A8  1903               	skipnz
  2318  01A9  29AB               	goto	u1283
  2319  01AA  07BF               	addwf	___flmul@grs+3,f
  2320  01AB                     u1283:
  2321  01AB                     l1460:
  2322  01AB  3008               	movlw	8
  2323  01AC  00B6               	movwf	??___flmul
  2324  01AD                     u1295:
  2325  01AD  1003               	clrc
  2326  01AE  0DBC               	rlf	___flmul@grs,f
  2327  01AF  0DBD               	rlf	___flmul@grs+1,f
  2328  01B0  0DBE               	rlf	___flmul@grs+2,f
  2329  01B1  0DBF               	rlf	___flmul@grs+3,f
  2330  01B2  0BB6               	decfsz	??___flmul,f
  2331  01B3  29AD               	goto	u1295
  2332  01B4  082E               	movf	___flmul@b,w
  2333  01B5  00B6               	movwf	??___flmul
  2334  01B6  0836               	movf	??___flmul,w
  2335  01B7  00A0               	movwf	__Umul8_16@multiplicand
  2336  01B8  0832               	movf	___flmul@a,w
  2337  01B9  120A  118A  2788  120A  118A  	fcall	__Umul8_16
  2338  01BE  1283               	bcf	3,5	;RP0=0, select bank0
  2339  01BF  1303               	bcf	3,6	;RP1=0, select bank0
  2340  01C0  0821               	movf	?__Umul8_16+1,w
  2341  01C1  00C7               	movwf	___flmul@temp+1
  2342  01C2  0820               	movf	?__Umul8_16,w
  2343  01C3  00C6               	movwf	___flmul@temp
  2344  01C4                     l1462:
  2345  01C4  0846               	movf	___flmul@temp,w
  2346  01C5  00B6               	movwf	??___flmul
  2347  01C6  0847               	movf	___flmul@temp+1,w
  2348  01C7  00B7               	movwf	??___flmul+1
  2349  01C8  01B8               	clrf	??___flmul+2
  2350  01C9  01B9               	clrf	??___flmul+3
  2351  01CA  0836               	movf	??___flmul,w
  2352  01CB  07BC               	addwf	___flmul@grs,f
  2353  01CC  0837               	movf	??___flmul+1,w
  2354  01CD  1103               	clrz
  2355  01CE  1803               	skipnc
  2356  01CF  3E01               	addlw	1
  2357  01D0  1903               	skipnz
  2358  01D1  29D3               	goto	u1301
  2359  01D2  07BD               	addwf	___flmul@grs+1,f
  2360  01D3                     u1301:
  2361  01D3  0838               	movf	??___flmul+2,w
  2362  01D4  1103               	clrz
  2363  01D5  1803               	skipnc
  2364  01D6  3E01               	addlw	1
  2365  01D7  1903               	skipnz
  2366  01D8  29DA               	goto	u1302
  2367  01D9  07BE               	addwf	___flmul@grs+2,f
  2368  01DA                     u1302:
  2369  01DA  0839               	movf	??___flmul+3,w
  2370  01DB  1103               	clrz
  2371  01DC  1803               	skipnc
  2372  01DD  3E01               	addlw	1
  2373  01DE  1903               	skipnz
  2374  01DF  29E1               	goto	u1303
  2375  01E0  07BF               	addwf	___flmul@grs+3,f
  2376  01E1                     u1303:
  2377  01E1                     l1464:
  2378  01E1  082F               	movf	___flmul@b+1,w
  2379  01E2  00B6               	movwf	??___flmul
  2380  01E3  0836               	movf	??___flmul,w
  2381  01E4  00A0               	movwf	__Umul8_16@multiplicand
  2382  01E5  0834               	movf	___flmul@a+2,w
  2383  01E6  120A  118A  2788  120A  118A  	fcall	__Umul8_16
  2384  01EB  1283               	bcf	3,5	;RP0=0, select bank0
  2385  01EC  1303               	bcf	3,6	;RP1=0, select bank0
  2386  01ED  0821               	movf	?__Umul8_16+1,w
  2387  01EE  00C7               	movwf	___flmul@temp+1
  2388  01EF  0820               	movf	?__Umul8_16,w
  2389  01F0  00C6               	movwf	___flmul@temp
  2390  01F1  0846               	movf	___flmul@temp,w
  2391  01F2  00B6               	movwf	??___flmul
  2392  01F3  0847               	movf	___flmul@temp+1,w
  2393  01F4  00B7               	movwf	??___flmul+1
  2394  01F5  01B8               	clrf	??___flmul+2
  2395  01F6  01B9               	clrf	??___flmul+3
  2396  01F7  0836               	movf	??___flmul,w
  2397  01F8  07C2               	addwf	___flmul@prod,f
  2398  01F9  0837               	movf	??___flmul+1,w
  2399  01FA  1103               	clrz
  2400  01FB  1803               	skipnc
  2401  01FC  3E01               	addlw	1
  2402  01FD  1903               	skipnz
  2403  01FE  2A00               	goto	u1311
  2404  01FF  07C3               	addwf	___flmul@prod+1,f
  2405  0200                     u1311:
  2406  0200  0838               	movf	??___flmul+2,w
  2407  0201  1103               	clrz
  2408  0202  1803               	skipnc
  2409  0203  3E01               	addlw	1
  2410  0204  1903               	skipnz
  2411  0205  2A07               	goto	u1312
  2412  0206  07C4               	addwf	___flmul@prod+2,f
  2413  0207                     u1312:
  2414  0207  0839               	movf	??___flmul+3,w
  2415  0208  1103               	clrz
  2416  0209  1803               	skipnc
  2417  020A  3E01               	addlw	1
  2418  020B  1903               	skipnz
  2419  020C  2A0E               	goto	u1313
  2420  020D  07C5               	addwf	___flmul@prod+3,f
  2421  020E                     u1313:
  2422  020E                     l1466:
  2423  020E  0830               	movf	___flmul@b+2,w
  2424  020F  00B6               	movwf	??___flmul
  2425  0210  0836               	movf	??___flmul,w
  2426  0211  00A0               	movwf	__Umul8_16@multiplicand
  2427  0212  0833               	movf	___flmul@a+1,w
  2428  0213  120A  118A  2788  120A  118A  	fcall	__Umul8_16
  2429  0218  1283               	bcf	3,5	;RP0=0, select bank0
  2430  0219  1303               	bcf	3,6	;RP1=0, select bank0
  2431  021A  0821               	movf	?__Umul8_16+1,w
  2432  021B  00C7               	movwf	___flmul@temp+1
  2433  021C  0820               	movf	?__Umul8_16,w
  2434  021D  00C6               	movwf	___flmul@temp
  2435  021E                     l1468:
  2436  021E  0846               	movf	___flmul@temp,w
  2437  021F  00B6               	movwf	??___flmul
  2438  0220  0847               	movf	___flmul@temp+1,w
  2439  0221  00B7               	movwf	??___flmul+1
  2440  0222  01B8               	clrf	??___flmul+2
  2441  0223  01B9               	clrf	??___flmul+3
  2442  0224  0836               	movf	??___flmul,w
  2443  0225  07C2               	addwf	___flmul@prod,f
  2444  0226  0837               	movf	??___flmul+1,w
  2445  0227  1103               	clrz
  2446  0228  1803               	skipnc
  2447  0229  3E01               	addlw	1
  2448  022A  1903               	skipnz
  2449  022B  2A2D               	goto	u1321
  2450  022C  07C3               	addwf	___flmul@prod+1,f
  2451  022D                     u1321:
  2452  022D  0838               	movf	??___flmul+2,w
  2453  022E  1103               	clrz
  2454  022F  1803               	skipnc
  2455  0230  3E01               	addlw	1
  2456  0231  1903               	skipnz
  2457  0232  2A34               	goto	u1322
  2458  0233  07C4               	addwf	___flmul@prod+2,f
  2459  0234                     u1322:
  2460  0234  0839               	movf	??___flmul+3,w
  2461  0235  1103               	clrz
  2462  0236  1803               	skipnc
  2463  0237  3E01               	addlw	1
  2464  0238  1903               	skipnz
  2465  0239  2A3B               	goto	u1323
  2466  023A  07C5               	addwf	___flmul@prod+3,f
  2467  023B                     u1323:
  2468  023B  0830               	movf	___flmul@b+2,w
  2469  023C  00B6               	movwf	??___flmul
  2470  023D  0836               	movf	??___flmul,w
  2471  023E  00A0               	movwf	__Umul8_16@multiplicand
  2472  023F  0834               	movf	___flmul@a+2,w
  2473  0240  120A  118A  2788  120A  118A  	fcall	__Umul8_16
  2474  0245  1283               	bcf	3,5	;RP0=0, select bank0
  2475  0246  1303               	bcf	3,6	;RP1=0, select bank0
  2476  0247  0821               	movf	?__Umul8_16+1,w
  2477  0248  00C7               	movwf	___flmul@temp+1
  2478  0249  0820               	movf	?__Umul8_16,w
  2479  024A  00C6               	movwf	___flmul@temp
  2480  024B                     l1470:
  2481  024B  0846               	movf	___flmul@temp,w
  2482  024C  00B6               	movwf	??___flmul
  2483  024D  0847               	movf	___flmul@temp+1,w
  2484  024E  00B7               	movwf	??___flmul+1
  2485  024F  01B8               	clrf	??___flmul+2
  2486  0250  01B9               	clrf	??___flmul+3
  2487  0251  3008               	movlw	8
  2488  0252                     u1335:
  2489  0252  1003               	clrc
  2490  0253  0DB6               	rlf	??___flmul,f
  2491  0254  0DB7               	rlf	??___flmul+1,f
  2492  0255  0DB8               	rlf	??___flmul+2,f
  2493  0256  0DB9               	rlf	??___flmul+3,f
  2494  0257                     u1330:
  2495  0257  3EFF               	addlw	-1
  2496  0258  1D03               	skipz
  2497  0259  2A52               	goto	u1335
  2498  025A  0836               	movf	??___flmul,w
  2499  025B  07C2               	addwf	___flmul@prod,f
  2500  025C  0837               	movf	??___flmul+1,w
  2501  025D  1103               	clrz
  2502  025E  1803               	skipnc
  2503  025F  3E01               	addlw	1
  2504  0260  1903               	skipnz
  2505  0261  2A63               	goto	u1341
  2506  0262  07C3               	addwf	___flmul@prod+1,f
  2507  0263                     u1341:
  2508  0263  0838               	movf	??___flmul+2,w
  2509  0264  1103               	clrz
  2510  0265  1803               	skipnc
  2511  0266  3E01               	addlw	1
  2512  0267  1903               	skipnz
  2513  0268  2A6A               	goto	u1342
  2514  0269  07C4               	addwf	___flmul@prod+2,f
  2515  026A                     u1342:
  2516  026A  0839               	movf	??___flmul+3,w
  2517  026B  1103               	clrz
  2518  026C  1803               	skipnc
  2519  026D  3E01               	addlw	1
  2520  026E  1903               	skipnz
  2521  026F  2A71               	goto	u1343
  2522  0270  07C5               	addwf	___flmul@prod+3,f
  2523  0271                     u1343:
  2524  0271                     l1472:
  2525  0271  083C               	movf	___flmul@grs,w
  2526  0272  00B6               	movwf	??___flmul
  2527  0273  083D               	movf	___flmul@grs+1,w
  2528  0274  00B7               	movwf	??___flmul+1
  2529  0275  083E               	movf	___flmul@grs+2,w
  2530  0276  00B8               	movwf	??___flmul+2
  2531  0277  083F               	movf	___flmul@grs+3,w
  2532  0278  00B9               	movwf	??___flmul+3
  2533  0279  3018               	movlw	24
  2534  027A                     u1355:
  2535  027A  1003               	clrc
  2536  027B  0CB9               	rrf	??___flmul+3,f
  2537  027C  0CB8               	rrf	??___flmul+2,f
  2538  027D  0CB7               	rrf	??___flmul+1,f
  2539  027E  0CB6               	rrf	??___flmul,f
  2540  027F                     u1350:
  2541  027F  3EFF               	addlw	-1
  2542  0280  1D03               	skipz
  2543  0281  2A7A               	goto	u1355
  2544  0282  0836               	movf	??___flmul,w
  2545  0283  07C2               	addwf	___flmul@prod,f
  2546  0284  0837               	movf	??___flmul+1,w
  2547  0285  1103               	clrz
  2548  0286  1803               	skipnc
  2549  0287  3E01               	addlw	1
  2550  0288  1903               	skipnz
  2551  0289  2A8B               	goto	u1361
  2552  028A  07C3               	addwf	___flmul@prod+1,f
  2553  028B                     u1361:
  2554  028B  0838               	movf	??___flmul+2,w
  2555  028C  1103               	clrz
  2556  028D  1803               	skipnc
  2557  028E  3E01               	addlw	1
  2558  028F  1903               	skipnz
  2559  0290  2A92               	goto	u1362
  2560  0291  07C4               	addwf	___flmul@prod+2,f
  2561  0292                     u1362:
  2562  0292  0839               	movf	??___flmul+3,w
  2563  0293  1103               	clrz
  2564  0294  1803               	skipnc
  2565  0295  3E01               	addlw	1
  2566  0296  1903               	skipnz
  2567  0297  2A99               	goto	u1363
  2568  0298  07C5               	addwf	___flmul@prod+3,f
  2569  0299                     u1363:
  2570  0299                     l1474:
  2571  0299  3008               	movlw	8
  2572  029A  00B6               	movwf	??___flmul
  2573  029B                     u1375:
  2574  029B  1003               	clrc
  2575  029C  0DBC               	rlf	___flmul@grs,f
  2576  029D  0DBD               	rlf	___flmul@grs+1,f
  2577  029E  0DBE               	rlf	___flmul@grs+2,f
  2578  029F  0DBF               	rlf	___flmul@grs+3,f
  2579  02A0  0BB6               	decfsz	??___flmul,f
  2580  02A1  2A9B               	goto	u1375
  2581  02A2                     l1476:
  2582  02A2  0841               	movf	___flmul@bexp,w
  2583  02A3  0740               	addwf	___flmul@aexp,w
  2584  02A4  00B6               	movwf	??___flmul
  2585  02A5  01B7               	clrf	??___flmul+1
  2586  02A6  0DB7               	rlf	??___flmul+1,f
  2587  02A7  0836               	movf	??___flmul,w
  2588  02A8  3E82               	addlw	130
  2589  02A9  00C6               	movwf	___flmul@temp
  2590  02AA  0837               	movf	??___flmul+1,w
  2591  02AB  1803               	skipnc
  2592  02AC  3E01               	addlw	1
  2593  02AD  3EFF               	addlw	255
  2594  02AE  00C7               	movwf	___flmul@temp+1
  2595  02AF  2ACD               	goto	l1488
  2596  02B0                     l1478:
  2597  02B0  3001               	movlw	1
  2598  02B1  00B6               	movwf	??___flmul
  2599  02B2                     u1385:
  2600  02B2  1003               	clrc
  2601  02B3  0DC2               	rlf	___flmul@prod,f
  2602  02B4  0DC3               	rlf	___flmul@prod+1,f
  2603  02B5  0DC4               	rlf	___flmul@prod+2,f
  2604  02B6  0DC5               	rlf	___flmul@prod+3,f
  2605  02B7  0BB6               	decfsz	??___flmul,f
  2606  02B8  2AB2               	goto	u1385
  2607  02B9                     l1480:
  2608  02B9  1FBF               	btfss	___flmul@grs+3,7
  2609  02BA  2ABC               	goto	u1391
  2610  02BB  2ABD               	goto	u1390
  2611  02BC                     u1391:
  2612  02BC  2ABE               	goto	l1484
  2613  02BD                     u1390:
  2614  02BD                     l1482:
  2615  02BD  1442               	bsf	___flmul@prod,0
  2616  02BE                     l1484:
  2617  02BE  3001               	movlw	1
  2618  02BF  00B6               	movwf	??___flmul
  2619  02C0                     u1405:
  2620  02C0  1003               	clrc
  2621  02C1  0DBC               	rlf	___flmul@grs,f
  2622  02C2  0DBD               	rlf	___flmul@grs+1,f
  2623  02C3  0DBE               	rlf	___flmul@grs+2,f
  2624  02C4  0DBF               	rlf	___flmul@grs+3,f
  2625  02C5  0BB6               	decfsz	??___flmul,f
  2626  02C6  2AC0               	goto	u1405
  2627  02C7                     l1486:
  2628  02C7  30FF               	movlw	255
  2629  02C8  07C6               	addwf	___flmul@temp,f
  2630  02C9  1803               	skipnc
  2631  02CA  0AC7               	incf	___flmul@temp+1,f
  2632  02CB  30FF               	movlw	255
  2633  02CC  07C7               	addwf	___flmul@temp+1,f
  2634  02CD                     l1488:
  2635  02CD  1FC4               	btfss	___flmul@prod+2,7
  2636  02CE  2AD0               	goto	u1411
  2637  02CF  2AD1               	goto	u1410
  2638  02D0                     u1411:
  2639  02D0  2AB0               	goto	l1478
  2640  02D1                     u1410:
  2641  02D1                     l1490:
  2642  02D1  01C0               	clrf	___flmul@aexp
  2643  02D2                     l1492:
  2644  02D2  1FBF               	btfss	___flmul@grs+3,7
  2645  02D3  2AD5               	goto	u1421
  2646  02D4  2AD6               	goto	u1420
  2647  02D5                     u1421:
  2648  02D5  2AF2               	goto	l1500
  2649  02D6                     u1420:
  2650  02D6                     l1494:
  2651  02D6  30FF               	movlw	255
  2652  02D7  053C               	andwf	___flmul@grs,w
  2653  02D8  00B6               	movwf	??___flmul
  2654  02D9  30FF               	movlw	255
  2655  02DA  053D               	andwf	___flmul@grs+1,w
  2656  02DB  00B7               	movwf	??___flmul+1
  2657  02DC  30FF               	movlw	255
  2658  02DD  053E               	andwf	___flmul@grs+2,w
  2659  02DE  00B8               	movwf	??___flmul+2
  2660  02DF  307F               	movlw	127
  2661  02E0  053F               	andwf	___flmul@grs+3,w
  2662  02E1  00B9               	movwf	??___flmul+3
  2663  02E2  0839               	movf	??___flmul+3,w
  2664  02E3  0438               	iorwf	??___flmul+2,w
  2665  02E4  0437               	iorwf	??___flmul+1,w
  2666  02E5  0436               	iorwf	??___flmul,w
  2667  02E6  1903               	skipnz
  2668  02E7  2AE9               	goto	u1431
  2669  02E8  2AEA               	goto	u1430
  2670  02E9                     u1431:
  2671  02E9  2AED               	goto	l593
  2672  02EA                     u1430:
  2673  02EA                     l1496:
  2674  02EA  01C0               	clrf	___flmul@aexp
  2675  02EB  0AC0               	incf	___flmul@aexp,f
  2676  02EC  2AF2               	goto	l1500
  2677  02ED                     l593:
  2678  02ED  1C42               	btfss	___flmul@prod,0
  2679  02EE  2AF0               	goto	u1441
  2680  02EF  2AF1               	goto	u1440
  2681  02F0                     u1441:
  2682  02F0  2AF2               	goto	l1500
  2683  02F1                     u1440:
  2684  02F1  2AEA               	goto	l1496
  2685  02F2                     l1500:
  2686  02F2  0840               	movf	___flmul@aexp,w
  2687  02F3  1903               	btfsc	3,2
  2688  02F4  2AF6               	goto	u1451
  2689  02F5  2AF7               	goto	u1450
  2690  02F6                     u1451:
  2691  02F6  2B28               	goto	l1510
  2692  02F7                     u1450:
  2693  02F7                     l1502:
  2694  02F7  3001               	movlw	1
  2695  02F8  07C2               	addwf	___flmul@prod,f
  2696  02F9  3000               	movlw	0
  2697  02FA  1803               	skipnc
  2698  02FB  3001               	movlw	1
  2699  02FC  07C3               	addwf	___flmul@prod+1,f
  2700  02FD  3000               	movlw	0
  2701  02FE  1803               	skipnc
  2702  02FF  3001               	movlw	1
  2703  0300  07C4               	addwf	___flmul@prod+2,f
  2704  0301  3000               	movlw	0
  2705  0302  1803               	skipnc
  2706  0303  3001               	movlw	1
  2707  0304  07C5               	addwf	___flmul@prod+3,f
  2708  0305                     l1504:
  2709  0305  1C45               	btfss	___flmul@prod+3,0
  2710  0306  2B08               	goto	u1461
  2711  0307  2B09               	goto	u1460
  2712  0308                     u1461:
  2713  0308  2B28               	goto	l1510
  2714  0309                     u1460:
  2715  0309                     l1506:
  2716  0309  0842               	movf	___flmul@prod,w
  2717  030A  00B6               	movwf	??___flmul
  2718  030B  0843               	movf	___flmul@prod+1,w
  2719  030C  00B7               	movwf	??___flmul+1
  2720  030D  0844               	movf	___flmul@prod+2,w
  2721  030E  00B8               	movwf	??___flmul+2
  2722  030F  0845               	movf	___flmul@prod+3,w
  2723  0310  00B9               	movwf	??___flmul+3
  2724  0311  3001               	movlw	1
  2725  0312  00BA               	movwf	??___flmul+4
  2726  0313                     u1475:
  2727  0313  0D39               	rlf	??___flmul+3,w
  2728  0314  0CB9               	rrf	??___flmul+3,f
  2729  0315  0CB8               	rrf	??___flmul+2,f
  2730  0316  0CB7               	rrf	??___flmul+1,f
  2731  0317  0CB6               	rrf	??___flmul,f
  2732  0318                     u1470:
  2733  0318  0BBA               	decfsz	??___flmul+4,f
  2734  0319  2B13               	goto	u1475
  2735  031A  0839               	movf	??___flmul+3,w
  2736  031B  00C5               	movwf	___flmul@prod+3
  2737  031C  0838               	movf	??___flmul+2,w
  2738  031D  00C4               	movwf	___flmul@prod+2
  2739  031E  0837               	movf	??___flmul+1,w
  2740  031F  00C3               	movwf	___flmul@prod+1
  2741  0320  0836               	movf	??___flmul,w
  2742  0321  00C2               	movwf	___flmul@prod
  2743  0322                     l1508:
  2744  0322  3001               	movlw	1
  2745  0323  07C6               	addwf	___flmul@temp,f
  2746  0324  1803               	skipnc
  2747  0325  0AC7               	incf	___flmul@temp+1,f
  2748  0326  3000               	movlw	0
  2749  0327  07C7               	addwf	___flmul@temp+1,f
  2750  0328                     l1510:
  2751  0328  0847               	movf	___flmul@temp+1,w
  2752  0329  3A80               	xorlw	128
  2753  032A  00FF               	movwf	btemp+1
  2754  032B  3080               	movlw	128
  2755  032C  027F               	subwf	btemp+1,w
  2756  032D  1D03               	skipz
  2757  032E  2B31               	goto	u1485
  2758  032F  30FF               	movlw	255
  2759  0330  0246               	subwf	___flmul@temp,w
  2760  0331                     u1485:
  2761  0331  1C03               	skipc
  2762  0332  2B34               	goto	u1481
  2763  0333  2B35               	goto	u1480
  2764  0334                     u1481:
  2765  0334  2B40               	goto	l1514
  2766  0335                     u1480:
  2767  0335                     l1512:
  2768  0335  307F               	movlw	127
  2769  0336  1283               	bcf	3,5	;RP0=0, select bank0
  2770  0337  1303               	bcf	3,6	;RP1=0, select bank0
  2771  0338  00C5               	movwf	___flmul@prod+3
  2772  0339  3080               	movlw	128
  2773  033A  00C4               	movwf	___flmul@prod+2
  2774  033B  3000               	movlw	0
  2775  033C  00C3               	movwf	___flmul@prod+1
  2776  033D  3000               	movlw	0
  2777  033E  00C2               	movwf	___flmul@prod
  2778  033F  2B75               	goto	l599
  2779  0340                     l1514:
  2780  0340  1283               	bcf	3,5	;RP0=0, select bank0
  2781  0341  1303               	bcf	3,6	;RP1=0, select bank0
  2782  0342  0847               	movf	___flmul@temp+1,w
  2783  0343  3A80               	xorlw	128
  2784  0344  00FF               	movwf	btemp+1
  2785  0345  3080               	movlw	128
  2786  0346  027F               	subwf	btemp+1,w
  2787  0347  1D03               	skipz
  2788  0348  2B4B               	goto	u1495
  2789  0349  3001               	movlw	1
  2790  034A  0246               	subwf	___flmul@temp,w
  2791  034B                     u1495:
  2792  034B  1803               	skipnc
  2793  034C  2B4E               	goto	u1491
  2794  034D  2B4F               	goto	u1490
  2795  034E                     u1491:
  2796  034E  2B5B               	goto	l1520
  2797  034F                     u1490:
  2798  034F                     l1516:
  2799  034F  3000               	movlw	0
  2800  0350  1283               	bcf	3,5	;RP0=0, select bank0
  2801  0351  1303               	bcf	3,6	;RP1=0, select bank0
  2802  0352  00C5               	movwf	___flmul@prod+3
  2803  0353  3000               	movlw	0
  2804  0354  00C4               	movwf	___flmul@prod+2
  2805  0355  3000               	movlw	0
  2806  0356  00C3               	movwf	___flmul@prod+1
  2807  0357  3000               	movlw	0
  2808  0358  00C2               	movwf	___flmul@prod
  2809  0359                     l1518:
  2810  0359  01BB               	clrf	___flmul@sign
  2811  035A  2B75               	goto	l599
  2812  035B                     l1520:
  2813  035B  1283               	bcf	3,5	;RP0=0, select bank0
  2814  035C  1303               	bcf	3,6	;RP1=0, select bank0
  2815  035D  0846               	movf	___flmul@temp,w
  2816  035E  00B6               	movwf	??___flmul
  2817  035F  0836               	movf	??___flmul,w
  2818  0360  00C1               	movwf	___flmul@bexp
  2819  0361  30FF               	movlw	255
  2820  0362  05C2               	andwf	___flmul@prod,f
  2821  0363  30FF               	movlw	255
  2822  0364  05C3               	andwf	___flmul@prod+1,f
  2823  0365  307F               	movlw	127
  2824  0366  05C4               	andwf	___flmul@prod+2,f
  2825  0367  3000               	movlw	0
  2826  0368  05C5               	andwf	___flmul@prod+3,f
  2827  0369                     l1522:
  2828  0369  1C41               	btfss	___flmul@bexp,0
  2829  036A  2B6C               	goto	u1501
  2830  036B  2B6D               	goto	u1500
  2831  036C                     u1501:
  2832  036C  2B6E               	goto	l1526
  2833  036D                     u1500:
  2834  036D                     l1524:
  2835  036D  17C4               	bsf	___flmul@prod+2,7
  2836  036E                     l1526:
  2837  036E  0841               	movf	___flmul@bexp,w
  2838  036F  00B6               	movwf	??___flmul
  2839  0370  1003               	clrc
  2840  0371  0C36               	rrf	??___flmul,w
  2841  0372  00B7               	movwf	??___flmul+1
  2842  0373  0837               	movf	??___flmul+1,w
  2843  0374  00C5               	movwf	___flmul@prod+3
  2844  0375                     l599:
  2845  0375  083B               	movf	___flmul@sign,w
  2846  0376  00B6               	movwf	??___flmul
  2847  0377  0836               	movf	??___flmul,w
  2848  0378  04C5               	iorwf	___flmul@prod+3,f
  2849  0379                     l1528:
  2850  0379  0845               	movf	___flmul@prod+3,w
  2851  037A  00B1               	movwf	?___flmul+3
  2852  037B  0844               	movf	___flmul@prod+2,w
  2853  037C  00B0               	movwf	?___flmul+2
  2854  037D  0843               	movf	___flmul@prod+1,w
  2855  037E  00AF               	movwf	?___flmul+1
  2856  037F  0842               	movf	___flmul@prod,w
  2857  0380  00AE               	movwf	?___flmul
  2858  0381                     l587:
  2859  0381  0008               	return
  2860  0382                     __end_of___flmul:
  2861                           
  2862                           	psect	text8
  2863  0788                     __ptext8:	
  2864 ;; *************** function __Umul8_16 *****************
  2865 ;; Defined at:
  2866 ;;		line 4 in file "C:\Program Files\Microchip\xc8\v2.35\pic\sources\c90\common\Umul8_16.c"
  2867 ;; Parameters:    Size  Location     Type
  2868 ;;  multiplier      1    wreg     unsigned char 
  2869 ;;  multiplicand    1    0[BANK0 ] unsigned char 
  2870 ;; Auto vars:     Size  Location     Type
  2871 ;;  multiplier      1    8[BANK0 ] unsigned char 
  2872 ;;  word_mpld       2    6[BANK0 ] unsigned int 
  2873 ;;  product         2    4[BANK0 ] unsigned int 
  2874 ;; Return value:  Size  Location     Type
  2875 ;;                  2    0[BANK0 ] unsigned int 
  2876 ;; Registers used:
  2877 ;;		wreg, status,2, status,0
  2878 ;; Tracked objects:
  2879 ;;		On entry : 0/0
  2880 ;;		On exit  : 0/0
  2881 ;;		Unchanged: 0/0
  2882 ;; Data sizes:     COMMON   BANK0   BANK1   BANK3   BANK2
  2883 ;;      Params:         0       2       0       0       0
  2884 ;;      Locals:         0       5       0       0       0
  2885 ;;      Temps:          0       2       0       0       0
  2886 ;;      Totals:         0       9       0       0       0
  2887 ;;Total ram usage:        9 bytes
  2888 ;; Hardware stack levels used: 1
  2889 ;; Hardware stack levels required when called: 3
  2890 ;; This function calls:
  2891 ;;		Nothing
  2892 ;; This function is called by:
  2893 ;;		___flmul
  2894 ;; This function uses a non-reentrant model
  2895 ;;
  2896                           
  2897  0788                     __Umul8_16:	
  2898                           ;psect for function __Umul8_16
  2899                           
  2900                           
  2901                           ;incstack = 0
  2902                           ; Regs used in __Umul8_16: [wreg+status,2+status,0]
  2903                           ;__Umul8_16@multiplier stored from wreg
  2904  0788  1283               	bcf	3,5	;RP0=0, select bank0
  2905  0789  1303               	bcf	3,6	;RP1=0, select bank0
  2906  078A  00A8               	movwf	__Umul8_16@multiplier
  2907  078B                     l1276:
  2908  078B  01A4               	clrf	__Umul8_16@product
  2909  078C  01A5               	clrf	__Umul8_16@product+1
  2910  078D                     l1278:
  2911  078D  0820               	movf	__Umul8_16@multiplicand,w
  2912  078E  00A2               	movwf	??__Umul8_16
  2913  078F  01A3               	clrf	??__Umul8_16+1
  2914  0790  0822               	movf	??__Umul8_16,w
  2915  0791  00A6               	movwf	__Umul8_16@word_mpld
  2916  0792  0823               	movf	??__Umul8_16+1,w
  2917  0793  00A7               	movwf	__Umul8_16@word_mpld+1
  2918  0794                     l1280:
  2919  0794  1C28               	btfss	__Umul8_16@multiplier,0
  2920  0795  2F97               	goto	u1011
  2921  0796  2F98               	goto	u1010
  2922  0797                     u1011:
  2923  0797  2F9E               	goto	l606
  2924  0798                     u1010:
  2925  0798                     l1282:
  2926  0798  0826               	movf	__Umul8_16@word_mpld,w
  2927  0799  07A4               	addwf	__Umul8_16@product,f
  2928  079A  1803               	skipnc
  2929  079B  0AA5               	incf	__Umul8_16@product+1,f
  2930  079C  0827               	movf	__Umul8_16@word_mpld+1,w
  2931  079D  07A5               	addwf	__Umul8_16@product+1,f
  2932  079E                     l606:
  2933  079E  3001               	movlw	1
  2934  079F                     u1025:
  2935  079F  1003               	clrc
  2936  07A0  0DA6               	rlf	__Umul8_16@word_mpld,f
  2937  07A1  0DA7               	rlf	__Umul8_16@word_mpld+1,f
  2938  07A2  3EFF               	addlw	-1
  2939  07A3  1D03               	skipz
  2940  07A4  2F9F               	goto	u1025
  2941  07A5  1003               	clrc
  2942  07A6  0CA8               	rrf	__Umul8_16@multiplier,f
  2943  07A7                     l1284:
  2944  07A7  0828               	movf	__Umul8_16@multiplier,w
  2945  07A8  1D03               	btfss	3,2
  2946  07A9  2FAB               	goto	u1031
  2947  07AA  2FAC               	goto	u1030
  2948  07AB                     u1031:
  2949  07AB  2F94               	goto	l1280
  2950  07AC                     u1030:
  2951  07AC                     l1286:
  2952  07AC  0825               	movf	__Umul8_16@product+1,w
  2953  07AD  00A1               	movwf	?__Umul8_16+1
  2954  07AE  0824               	movf	__Umul8_16@product,w
  2955  07AF  00A0               	movwf	?__Umul8_16
  2956  07B0                     l608:
  2957  07B0  0008               	return
  2958  07B1                     __end_of__Umul8_16:
  2959                           
  2960                           	psect	text9
  2961  0744                     __ptext9:	
  2962 ;; *************** function _isr *****************
  2963 ;; Defined at:
  2964 ;;		line 57 in file "main.c"
  2965 ;; Parameters:    Size  Location     Type
  2966 ;;		None
  2967 ;; Auto vars:     Size  Location     Type
  2968 ;;		None
  2969 ;; Return value:  Size  Location     Type
  2970 ;;                  1    wreg      void 
  2971 ;; Registers used:
  2972 ;;		wreg, fsr0l, fsr0h, status,2, status,0, pclath, cstack
  2973 ;; Tracked objects:
  2974 ;;		On entry : 0/0
  2975 ;;		On exit  : 0/0
  2976 ;;		Unchanged: 0/0
  2977 ;; Data sizes:     COMMON   BANK0   BANK1   BANK3   BANK2
  2978 ;;      Params:         0       0       0       0       0
  2979 ;;      Locals:         0       0       0       0       0
  2980 ;;      Temps:          4       0       0       0       0
  2981 ;;      Totals:         4       0       0       0       0
  2982 ;;Total ram usage:        4 bytes
  2983 ;; Hardware stack levels used: 1
  2984 ;; Hardware stack levels required when called: 2
  2985 ;; This function calls:
  2986 ;;		_mostrar
  2987 ;; This function is called by:
  2988 ;;		Interrupt level 1
  2989 ;; This function uses a non-reentrant model
  2990 ;;
  2991                           
  2992  0744                     _isr:	
  2993                           ;psect for function _isr
  2994                           
  2995  0744                     i1l1576:
  2996                           
  2997                           ;main.c: 58:     if(PIR1bits.ADIF){
  2998  0744  1283               	bcf	3,5	;RP0=0, select bank0
  2999  0745  1303               	bcf	3,6	;RP1=0, select bank0
  3000  0746  1F0C               	btfss	12,6	;volatile
  3001  0747  2F49               	goto	u165_21
  3002  0748  2F4A               	goto	u165_20
  3003  0749                     u165_21:
  3004  0749  2F65               	goto	i1l63
  3005  074A                     u165_20:
  3006  074A                     i1l1578:
  3007                           
  3008                           ;main.c: 59:         if(ADCON0bits.CHS == 0){
  3009  074A  0C1F               	rrf	31,w	;volatile
  3010  074B  00F7               	movwf	??_isr
  3011  074C  0C77               	rrf	??_isr,w
  3012  074D  390F               	andlw	15
  3013  074E  3A00               	xorlw	0
  3014  074F  1D03               	skipz
  3015  0750  2F52               	goto	u166_21
  3016  0751  2F53               	goto	u166_20
  3017  0752                     u166_21:
  3018  0752  2F56               	goto	i1l1582
  3019  0753                     u166_20:
  3020  0753                     i1l1580:
  3021                           
  3022                           ;main.c: 60:             PORTB = ADRESH;
  3023  0753  081E               	movf	30,w	;volatile
  3024  0754  0086               	movwf	6	;volatile
  3025                           
  3026                           ;main.c: 61:         }
  3027  0755  2F63               	goto	i1l1586
  3028  0756                     i1l1582:
  3029  0756  0C1F               	rrf	31,w	;volatile
  3030  0757  00F7               	movwf	??_isr
  3031  0758  0C77               	rrf	??_isr,w
  3032  0759  390F               	andlw	15
  3033  075A  3A01               	xorlw	1
  3034  075B  1D03               	skipz
  3035  075C  2F5E               	goto	u167_21
  3036  075D  2F5F               	goto	u167_20
  3037  075E                     u167_21:
  3038  075E  2F63               	goto	i1l1586
  3039  075F                     u167_20:
  3040  075F                     i1l1584:
  3041                           
  3042                           ;main.c: 63:             Van1 = ADRESH;
  3043  075F  081E               	movf	30,w	;volatile
  3044  0760  00F7               	movwf	??_isr
  3045  0761  0877               	movf	??_isr,w
  3046  0762  00DD               	movwf	_Van1
  3047  0763                     i1l1586:
  3048                           
  3049                           ;main.c: 65:         PIR1bits.ADIF = 0;
  3050  0763  130C               	bcf	12,6	;volatile
  3051                           
  3052                           ;main.c: 66:     }
  3053  0764  2F7F               	goto	i1l70
  3054  0765                     i1l63:	
  3055                           ;main.c: 67:     else if(INTCONbits.T0IF){
  3056                           
  3057  0765  1D0B               	btfss	11,2	;volatile
  3058  0766  2F68               	goto	u168_21
  3059  0767  2F69               	goto	u168_20
  3060  0768                     u168_21:
  3061  0768  2F7F               	goto	i1l70
  3062  0769                     u168_20:
  3063  0769                     i1l1588:
  3064                           
  3065                           ;main.c: 68:         mostrar(VALOR);
  3066  0769  305E               	movlw	(low (_VALOR| 0))& (0+255)
  3067  076A  120A  118A  26A7  120A  118A  	fcall	_mostrar
  3068  076F                     i1l1590:
  3069                           
  3070                           ;main.c: 69:         Bandera_multiplexado++;
  3071  076F  3001               	movlw	1
  3072  0770  00F7               	movwf	??_isr
  3073  0771  0877               	movf	??_isr,w
  3074  0772  07FB               	addwf	_Bandera_multiplexado,f
  3075  0773                     i1l1592:
  3076                           
  3077                           ;main.c: 70:         if(Bandera_multiplexado>2){
  3078  0773  3003               	movlw	3
  3079  0774  027B               	subwf	_Bandera_multiplexado,w
  3080  0775  1C03               	skipc
  3081  0776  2F78               	goto	u169_21
  3082  0777  2F79               	goto	u169_20
  3083  0778                     u169_21:
  3084  0778  2F7A               	goto	i1l1596
  3085  0779                     u169_20:
  3086  0779                     i1l1594:
  3087                           
  3088                           ;main.c: 71:             Bandera_multiplexado = 0;
  3089  0779  01FB               	clrf	_Bandera_multiplexado
  3090  077A                     i1l1596:
  3091                           
  3092                           ;main.c: 73:         INTCONbits.T0IF = 0;
  3093  077A  110B               	bcf	11,2	;volatile
  3094  077B                     i1l1598:
  3095                           
  3096                           ;main.c: 74:         TMR0 = 254;
  3097  077B  30FE               	movlw	254
  3098  077C  1283               	bcf	3,5	;RP0=0, select bank0
  3099  077D  1303               	bcf	3,6	;RP1=0, select bank0
  3100  077E  0081               	movwf	1	;volatile
  3101  077F                     i1l70:
  3102  077F  087A               	movf	??_isr+3,w
  3103  0780  008A               	movwf	10
  3104  0781  0879               	movf	??_isr+2,w
  3105  0782  0084               	movwf	4
  3106  0783  0E78               	swapf	??_isr+1,w
  3107  0784  0083               	movwf	3
  3108  0785  0EFE               	swapf	btemp,f
  3109  0786  0E7E               	swapf	btemp,w
  3110  0787  0009               	retfie
  3111  0788                     __end_of_isr:
  3112                           
  3113                           	psect	intentry
  3114  0004                     __pintentry:	
  3115                           ;incstack = 0
  3116                           ; Regs used in _isr: [wreg-fsr0h+status,2+status,0+pclath+cstack]
  3117                           
  3118  0004                     interrupt_function:
  3119  007E                     saved_w	set	btemp
  3120  0004  00FE               	movwf	btemp
  3121  0005  0E03               	swapf	3,w
  3122  0006  00F8               	movwf	??_isr+1
  3123  0007  0804               	movf	4,w
  3124  0008  00F9               	movwf	??_isr+2
  3125  0009  080A               	movf	10,w
  3126  000A  00FA               	movwf	??_isr+3
  3127  000B  120A  118A  2F44   	ljmp	_isr
  3128                           
  3129                           	psect	text10
  3130  06A7                     __ptext10:	
  3131 ;; *************** function _mostrar *****************
  3132 ;; Defined at:
  3133 ;;		line 162 in file "main.c"
  3134 ;; Parameters:    Size  Location     Type
  3135 ;;  a               1    wreg     PTR int 
  3136 ;;		 -> VALOR(6), 
  3137 ;; Auto vars:     Size  Location     Type
  3138 ;;  a               1    6[COMMON] PTR int 
  3139 ;;		 -> VALOR(6), 
  3140 ;; Return value:  Size  Location     Type
  3141 ;;                  1    wreg      void 
  3142 ;; Registers used:
  3143 ;;		wreg, fsr0l, fsr0h, status,2, status,0, pclath, cstack
  3144 ;; Tracked objects:
  3145 ;;		On entry : 0/0
  3146 ;;		On exit  : 0/0
  3147 ;;		Unchanged: 0/0
  3148 ;; Data sizes:     COMMON   BANK0   BANK1   BANK3   BANK2
  3149 ;;      Params:         0       0       0       0       0
  3150 ;;      Locals:         1       0       0       0       0
  3151 ;;      Temps:          2       0       0       0       0
  3152 ;;      Totals:         3       0       0       0       0
  3153 ;;Total ram usage:        3 bytes
  3154 ;; Hardware stack levels used: 1
  3155 ;; Hardware stack levels required when called: 1
  3156 ;; This function calls:
  3157 ;;		_tabla
  3158 ;; This function is called by:
  3159 ;;		_isr
  3160 ;; This function uses a non-reentrant model
  3161 ;;
  3162                           
  3163  06A7                     _mostrar:	
  3164                           ;psect for function _mostrar
  3165                           
  3166                           
  3167                           ;incstack = 0
  3168                           ; Regs used in _mostrar: [wreg-fsr0h+status,2+status,0+pclath+cstack]
  3169                           ;mostrar@a stored from wreg
  3170  06A7  00F6               	movwf	mostrar@a
  3171  06A8                     i1l1290:
  3172                           
  3173                           ;main.c: 163:     PORTD = 0x00;
  3174  06A8  1283               	bcf	3,5	;RP0=0, select bank0
  3175  06A9  1303               	bcf	3,6	;RP1=0, select bank0
  3176  06AA  0188               	clrf	8	;volatile
  3177                           
  3178                           ;main.c: 164:     PORTC = 0x00;
  3179  06AB  0187               	clrf	7	;volatile
  3180                           
  3181                           ;main.c: 165:     switch(Bandera_multiplexado){
  3182  06AC  2EE7               	goto	i1l1300
  3183  06AD                     i1l92:	
  3184                           ;main.c: 166:         case 0:
  3185                           
  3186                           
  3187                           ;main.c: 167:             PORTDbits.RD2 = 1;
  3188  06AD  1508               	bsf	8,2	;volatile
  3189  06AE                     i1l1292:
  3190                           
  3191                           ;main.c: 168:             PORTC = tabla(a[1])+(0x80);
  3192  06AE  0876               	movf	mostrar@a,w
  3193  06AF  3E02               	addlw	2
  3194  06B0  0084               	movwf	4
  3195  06B1  1383               	bcf	3,7	;select IRP bank0
  3196  06B2  0800               	movf	0,w
  3197  06B3  00F0               	movwf	tabla@a
  3198  06B4  0A84               	incf	4,f
  3199  06B5  0800               	movf	0,w
  3200  06B6  00F1               	movwf	tabla@a+1
  3201  06B7  120A  118A  264C  120A  118A  	fcall	_tabla
  3202  06BC  3E80               	addlw	128
  3203  06BD  1283               	bcf	3,5	;RP0=0, select bank0
  3204  06BE  1303               	bcf	3,6	;RP1=0, select bank0
  3205  06BF  0087               	movwf	7	;volatile
  3206                           
  3207                           ;main.c: 169:             break;
  3208  06C0  2EFA               	goto	i1l97
  3209  06C1                     i1l94:	
  3210                           ;main.c: 170:         case 1:
  3211                           
  3212                           
  3213                           ;main.c: 171:             PORTDbits.RD1 = 1;
  3214  06C1  1488               	bsf	8,1	;volatile
  3215  06C2                     i1l1294:
  3216                           
  3217                           ;main.c: 172:             PORTC = tabla(a[2]);
  3218  06C2  0876               	movf	mostrar@a,w
  3219  06C3  3E04               	addlw	4
  3220  06C4  0084               	movwf	4
  3221  06C5  1383               	bcf	3,7	;select IRP bank0
  3222  06C6  0800               	movf	0,w
  3223  06C7  00F0               	movwf	tabla@a
  3224  06C8  0A84               	incf	4,f
  3225  06C9  0800               	movf	0,w
  3226  06CA  00F1               	movwf	tabla@a+1
  3227  06CB  120A  118A  264C  120A  118A  	fcall	_tabla
  3228  06D0  1283               	bcf	3,5	;RP0=0, select bank0
  3229  06D1  1303               	bcf	3,6	;RP1=0, select bank0
  3230  06D2  0087               	movwf	7	;volatile
  3231                           
  3232                           ;main.c: 173:             break;
  3233  06D3  2EFA               	goto	i1l97
  3234  06D4                     i1l95:	
  3235                           ;main.c: 174:         case 2:
  3236                           
  3237                           
  3238                           ;main.c: 175:             PORTDbits.RD0 = 1;
  3239  06D4  1408               	bsf	8,0	;volatile
  3240  06D5                     i1l1296:
  3241                           
  3242                           ;main.c: 176:             PORTC = tabla(a[3]);
  3243  06D5  0876               	movf	mostrar@a,w
  3244  06D6  3E06               	addlw	6
  3245  06D7  0084               	movwf	4
  3246  06D8  1383               	bcf	3,7	;select IRP bank0
  3247  06D9  0800               	movf	0,w
  3248  06DA  00F0               	movwf	tabla@a
  3249  06DB  0A84               	incf	4,f
  3250  06DC  0800               	movf	0,w
  3251  06DD  00F1               	movwf	tabla@a+1
  3252  06DE  120A  118A  264C  120A  118A  	fcall	_tabla
  3253  06E3  1283               	bcf	3,5	;RP0=0, select bank0
  3254  06E4  1303               	bcf	3,6	;RP1=0, select bank0
  3255  06E5  0087               	movwf	7	;volatile
  3256                           
  3257                           ;main.c: 177:             break;
  3258  06E6  2EFA               	goto	i1l97
  3259  06E7                     i1l1300:
  3260  06E7  087B               	movf	_Bandera_multiplexado,w
  3261  06E8  00F4               	movwf	??_mostrar
  3262  06E9  01F5               	clrf	??_mostrar+1
  3263                           
  3264                           ; Switch on 2 bytes has been partitioned into a top level switch of size 1, and 1 sub-sw
      +                          itches
  3265                           ; Switch size 1, requested type "simple"
  3266                           ; Number of cases is 1, Range of values is 0 to 0
  3267                           ; switch strategies available:
  3268                           ; Name         Instructions Cycles
  3269                           ; simple_byte            4     3 (average)
  3270                           ; direct_byte           11     8 (fixed)
  3271                           ; jumptable            260     6 (fixed)
  3272                           ;	Chosen strategy is simple_byte
  3273  06EA  0875               	movf	??_mostrar+1,w
  3274  06EB  3A00               	xorlw	0	; case 0
  3275  06EC  1903               	skipnz
  3276  06ED  2EEF               	goto	i1l1664
  3277  06EE  2EFA               	goto	i1l97
  3278  06EF                     i1l1664:
  3279                           
  3280                           ; Switch size 1, requested type "simple"
  3281                           ; Number of cases is 3, Range of values is 0 to 2
  3282                           ; switch strategies available:
  3283                           ; Name         Instructions Cycles
  3284                           ; simple_byte           10     6 (average)
  3285                           ; direct_byte           17     8 (fixed)
  3286                           ; jumptable            260     6 (fixed)
  3287                           ;	Chosen strategy is simple_byte
  3288  06EF  0874               	movf	??_mostrar,w
  3289  06F0  3A00               	xorlw	0	; case 0
  3290  06F1  1903               	skipnz
  3291  06F2  2EAD               	goto	i1l92
  3292  06F3  3A01               	xorlw	1	; case 1
  3293  06F4  1903               	skipnz
  3294  06F5  2EC1               	goto	i1l94
  3295  06F6  3A03               	xorlw	3	; case 2
  3296  06F7  1903               	skipnz
  3297  06F8  2ED4               	goto	i1l95
  3298  06F9  2EFA               	goto	i1l97
  3299  06FA                     i1l97:
  3300  06FA  0008               	return
  3301  06FB                     __end_of_mostrar:
  3302                           
  3303                           	psect	text11
  3304  064C                     __ptext11:	
  3305 ;; *************** function _tabla *****************
  3306 ;; Defined at:
  3307 ;;		line 185 in file "main.c"
  3308 ;; Parameters:    Size  Location     Type
  3309 ;;  a               2    0[COMMON] int 
  3310 ;; Auto vars:     Size  Location     Type
  3311 ;;  valor           1    3[COMMON] unsigned char 
  3312 ;; Return value:  Size  Location     Type
  3313 ;;                  1    wreg      unsigned char 
  3314 ;; Registers used:
  3315 ;;		wreg, fsr0l, fsr0h, status,2, status,0
  3316 ;; Tracked objects:
  3317 ;;		On entry : 0/0
  3318 ;;		On exit  : 0/0
  3319 ;;		Unchanged: 0/0
  3320 ;; Data sizes:     COMMON   BANK0   BANK1   BANK3   BANK2
  3321 ;;      Params:         2       0       0       0       0
  3322 ;;      Locals:         1       0       0       0       0
  3323 ;;      Temps:          1       0       0       0       0
  3324 ;;      Totals:         4       0       0       0       0
  3325 ;;Total ram usage:        4 bytes
  3326 ;; Hardware stack levels used: 1
  3327 ;; This function calls:
  3328 ;;		Nothing
  3329 ;; This function is called by:
  3330 ;;		_mostrar
  3331 ;; This function uses a non-reentrant model
  3332 ;;
  3333                           
  3334  064C                     _tabla:	
  3335                           ;psect for function _tabla
  3336                           
  3337  064C                     i1l1184:	
  3338                           ;incstack = 0
  3339                           ; Regs used in _tabla: [wreg-fsr0h+status,2+status,0]
  3340                           
  3341                           
  3342                           ;main.c: 186:     uint8_t valor = 0;
  3343  064C  01F3               	clrf	tabla@valor
  3344                           
  3345                           ;main.c: 187:     switch(a){
  3346  064D  2E80               	goto	i1l1208
  3347  064E                     i1l1186:
  3348                           
  3349                           ;main.c: 189:             valor = 0x3F;
  3350  064E  303F               	movlw	63
  3351  064F  00F2               	movwf	??_tabla
  3352  0650  0872               	movf	??_tabla,w
  3353  0651  00F3               	movwf	tabla@valor
  3354                           
  3355                           ;main.c: 190:             break;
  3356  0652  2EA5               	goto	i1l1210
  3357  0653                     i1l1188:
  3358                           
  3359                           ;main.c: 192:             valor = 0x06;
  3360  0653  3006               	movlw	6
  3361  0654  00F2               	movwf	??_tabla
  3362  0655  0872               	movf	??_tabla,w
  3363  0656  00F3               	movwf	tabla@valor
  3364                           
  3365                           ;main.c: 193:             break;
  3366  0657  2EA5               	goto	i1l1210
  3367  0658                     i1l1190:
  3368                           
  3369                           ;main.c: 195:             valor = 0x5B;
  3370  0658  305B               	movlw	91
  3371  0659  00F2               	movwf	??_tabla
  3372  065A  0872               	movf	??_tabla,w
  3373  065B  00F3               	movwf	tabla@valor
  3374                           
  3375                           ;main.c: 196:             break;
  3376  065C  2EA5               	goto	i1l1210
  3377  065D                     i1l1192:
  3378                           
  3379                           ;main.c: 198:             valor = 0x4F;
  3380  065D  304F               	movlw	79
  3381  065E  00F2               	movwf	??_tabla
  3382  065F  0872               	movf	??_tabla,w
  3383  0660  00F3               	movwf	tabla@valor
  3384                           
  3385                           ;main.c: 199:             break;
  3386  0661  2EA5               	goto	i1l1210
  3387  0662                     i1l1194:
  3388                           
  3389                           ;main.c: 201:             valor = 0x66;
  3390  0662  3066               	movlw	102
  3391  0663  00F2               	movwf	??_tabla
  3392  0664  0872               	movf	??_tabla,w
  3393  0665  00F3               	movwf	tabla@valor
  3394                           
  3395                           ;main.c: 202:             break;
  3396  0666  2EA5               	goto	i1l1210
  3397  0667                     i1l1196:
  3398                           
  3399                           ;main.c: 204:             valor = 0x6D;
  3400  0667  306D               	movlw	109
  3401  0668  00F2               	movwf	??_tabla
  3402  0669  0872               	movf	??_tabla,w
  3403  066A  00F3               	movwf	tabla@valor
  3404                           
  3405                           ;main.c: 205:             break;
  3406  066B  2EA5               	goto	i1l1210
  3407  066C                     i1l1198:
  3408                           
  3409                           ;main.c: 207:             valor = 0x7D;
  3410  066C  307D               	movlw	125
  3411  066D  00F2               	movwf	??_tabla
  3412  066E  0872               	movf	??_tabla,w
  3413  066F  00F3               	movwf	tabla@valor
  3414                           
  3415                           ;main.c: 208:             break;
  3416  0670  2EA5               	goto	i1l1210
  3417  0671                     i1l1200:
  3418                           
  3419                           ;main.c: 210:             valor = 0x07;
  3420  0671  3007               	movlw	7
  3421  0672  00F2               	movwf	??_tabla
  3422  0673  0872               	movf	??_tabla,w
  3423  0674  00F3               	movwf	tabla@valor
  3424                           
  3425                           ;main.c: 211:             break;
  3426  0675  2EA5               	goto	i1l1210
  3427  0676                     i1l1202:
  3428                           
  3429                           ;main.c: 213:             valor = 0x7F;
  3430  0676  307F               	movlw	127
  3431  0677  00F2               	movwf	??_tabla
  3432  0678  0872               	movf	??_tabla,w
  3433  0679  00F3               	movwf	tabla@valor
  3434                           
  3435                           ;main.c: 214:             break;
  3436  067A  2EA5               	goto	i1l1210
  3437  067B                     i1l1204:
  3438                           
  3439                           ;main.c: 216:             valor = 0x6F;
  3440  067B  306F               	movlw	111
  3441  067C  00F2               	movwf	??_tabla
  3442  067D  0872               	movf	??_tabla,w
  3443  067E  00F3               	movwf	tabla@valor
  3444                           
  3445                           ;main.c: 217:             break;
  3446  067F  2EA5               	goto	i1l1210
  3447  0680                     i1l1208:
  3448                           
  3449                           ; Switch on 2 bytes has been partitioned into a top level switch of size 1, and 1 sub-sw
      +                          itches
  3450                           ; Switch size 1, requested type "simple"
  3451                           ; Number of cases is 1, Range of values is 0 to 0
  3452                           ; switch strategies available:
  3453                           ; Name         Instructions Cycles
  3454                           ; simple_byte            4     3 (average)
  3455                           ; direct_byte           11     8 (fixed)
  3456                           ; jumptable            260     6 (fixed)
  3457                           ;	Chosen strategy is simple_byte
  3458  0680  0871               	movf	tabla@a+1,w
  3459  0681  3A00               	xorlw	0	; case 0
  3460  0682  1903               	skipnz
  3461  0683  2E85               	goto	i1l1666
  3462  0684  2EA5               	goto	i1l1210
  3463  0685                     i1l1666:
  3464                           
  3465                           ; Switch size 1, requested type "simple"
  3466                           ; Number of cases is 10, Range of values is 0 to 9
  3467                           ; switch strategies available:
  3468                           ; Name         Instructions Cycles
  3469                           ; simple_byte           31    16 (average)
  3470                           ; direct_byte           38     8 (fixed)
  3471                           ; jumptable            260     6 (fixed)
  3472                           ;	Chosen strategy is simple_byte
  3473  0685  0870               	movf	tabla@a,w
  3474  0686  3A00               	xorlw	0	; case 0
  3475  0687  1903               	skipnz
  3476  0688  2E4E               	goto	i1l1186
  3477  0689  3A01               	xorlw	1	; case 1
  3478  068A  1903               	skipnz
  3479  068B  2E53               	goto	i1l1188
  3480  068C  3A03               	xorlw	3	; case 2
  3481  068D  1903               	skipnz
  3482  068E  2E58               	goto	i1l1190
  3483  068F  3A01               	xorlw	1	; case 3
  3484  0690  1903               	skipnz
  3485  0691  2E5D               	goto	i1l1192
  3486  0692  3A07               	xorlw	7	; case 4
  3487  0693  1903               	skipnz
  3488  0694  2E62               	goto	i1l1194
  3489  0695  3A01               	xorlw	1	; case 5
  3490  0696  1903               	skipnz
  3491  0697  2E67               	goto	i1l1196
  3492  0698  3A03               	xorlw	3	; case 6
  3493  0699  1903               	skipnz
  3494  069A  2E6C               	goto	i1l1198
  3495  069B  3A01               	xorlw	1	; case 7
  3496  069C  1903               	skipnz
  3497  069D  2E71               	goto	i1l1200
  3498  069E  3A0F               	xorlw	15	; case 8
  3499  069F  1903               	skipnz
  3500  06A0  2E76               	goto	i1l1202
  3501  06A1  3A01               	xorlw	1	; case 9
  3502  06A2  1903               	skipnz
  3503  06A3  2E7B               	goto	i1l1204
  3504  06A4  2EA5               	goto	i1l1210
  3505  06A5                     i1l1210:
  3506                           
  3507                           ;main.c: 219:     return valor;
  3508  06A5  0873               	movf	tabla@valor,w
  3509  06A6                     i1l112:
  3510  06A6  0008               	return
  3511  06A7                     __end_of_tabla:
  3512  007E                     btemp	set	126	;btemp
  3513  007E                     wtemp0	set	126
  3514                           
  3515                           	psect	idloc
  3516                           
  3517                           ;Config register IDLOC0 @ 0x2000
  3518                           ;	unspecified, using default values
  3519  2000                     	org	8192
  3520  2000  3FFF               	dw	16383
  3521                           
  3522                           ;Config register IDLOC1 @ 0x2001
  3523                           ;	unspecified, using default values
  3524  2001                     	org	8193
  3525  2001  3FFF               	dw	16383
  3526                           
  3527                           ;Config register IDLOC2 @ 0x2002
  3528                           ;	unspecified, using default values
  3529  2002                     	org	8194
  3530  2002  3FFF               	dw	16383
  3531                           
  3532                           ;Config register IDLOC3 @ 0x2003
  3533                           ;	unspecified, using default values
  3534  2003                     	org	8195
  3535  2003  3FFF               	dw	16383
  3536                           
  3537                           	psect	config
  3538                           
  3539                           ;Config register CONFIG1 @ 0x2007
  3540                           ;	Oscillator Selection bits
  3541                           ;	FOSC = INTRC_NOCLKOUT, INTOSCIO oscillator: I/O function on RA6/OSC2/CLKOUT pin, I/O f
      +                          unction on RA7/OSC1/CLKIN
  3542                           ;	Watchdog Timer Enable bit
  3543                           ;	WDTE = OFF, WDT disabled and can be enabled by SWDTEN bit of the WDTCON register
  3544                           ;	Power-up Timer Enable bit
  3545                           ;	PWRTE = OFF, PWRT disabled
  3546                           ;	RE3/MCLR pin function select bit
  3547                           ;	MCLRE = OFF, RE3/MCLR pin function is digital input, MCLR internally tied to VDD
  3548                           ;	Code Protection bit
  3549                           ;	CP = OFF, Program memory code protection is disabled
  3550                           ;	Data Code Protection bit
  3551                           ;	CPD = OFF, Data memory code protection is disabled
  3552                           ;	Brown Out Reset Selection bits
  3553                           ;	BOREN = OFF, BOR disabled
  3554                           ;	Internal External Switchover bit
  3555                           ;	IESO = OFF, Internal/External Switchover mode is disabled
  3556                           ;	Fail-Safe Clock Monitor Enabled bit
  3557                           ;	FCMEN = OFF, Fail-Safe Clock Monitor is disabled
  3558                           ;	Low Voltage Programming Enable bit
  3559                           ;	LVP = OFF, RB3 pin has digital I/O, HV on MCLR must be used for programming
  3560                           ;	In-Circuit Debugger Mode bit
  3561                           ;	DEBUG = 0x1, unprogrammed default
  3562  2007                     	org	8199
  3563  2007  20D4               	dw	8404
  3564                           
  3565                           ;Config register CONFIG2 @ 0x2008
  3566                           ;	Brown-out Reset Selection bit
  3567                           ;	BOR4V = BOR40V, Brown-out Reset set to 4.0V
  3568                           ;	Flash Program Memory Self Write Enable bits
  3569                           ;	WRT = OFF, Write protection off
  3570  2008                     	org	8200
  3571  2008  3FFF               	dw	16383

Data Sizes:
    Strings     0
    Constant    0
    Data        0
    BSS         10
    Persistent  0
    Stack       0

Auto Spaces:
    Space          Size  Autos    Used
    COMMON           14     11      12
    BANK0            80     59      68
    BANK1            80      0       0
    BANK3            96      0       0
    BANK2            96      0       0

Pointer List with Targets:

    mostrar@a	PTR int  size(1) Largest target is 6
		 -> VALOR(BANK0[6]), 

    separacion@b	PTR int  size(1) Largest target is 6
		 -> VALOR(BANK0[6]), 


Critical Paths under _main in COMMON

    None.

Critical Paths under _isr in COMMON

    _isr->_mostrar
    _mostrar->_tabla

Critical Paths under _main in BANK0

    _main->___fltol
    _separacion->___awdiv
    ___awdiv->___wmul
    ___fltol->___flmul
    ___flmul->___xxtofl

Critical Paths under _isr in BANK0

    None.

Critical Paths under _main in BANK1

    None.

Critical Paths under _isr in BANK1

    None.

Critical Paths under _main in BANK3

    None.

Critical Paths under _isr in BANK3

    None.

Critical Paths under _main in BANK2

    None.

Critical Paths under _isr in BANK2

    None.

Call Graph Tables:

 ---------------------------------------------------------------------------------
 (Depth) Function   	        Calls       Base Space   Used Autos Params    Refs
 ---------------------------------------------------------------------------------
 (0) _main                                                 8     8      0    4797
                                             51 BANK0      8     8      0
                            ___flmul
                            ___fltol
                           ___xxtofl
                         _separacion
                              _setup
 ---------------------------------------------------------------------------------
 (1) _setup                                                0     0      0       0
 ---------------------------------------------------------------------------------
 (1) _separacion                                           9     6      3    1502
                                             15 BANK0      9     6      3
                            ___awdiv
                             ___wmul
 ---------------------------------------------------------------------------------
 (2) ___wmul                                               6     2      4     548
                                              0 BANK0      6     2      4
 ---------------------------------------------------------------------------------
 (2) ___awdiv                                              9     5      4     604
                                              6 BANK0      9     5      4
                             ___wmul (ARG)
 ---------------------------------------------------------------------------------
 (1) ___xxtofl                                            14    10      4     398
                                              0 BANK0     14    10      4
 ---------------------------------------------------------------------------------
 (1) ___fltol                                             11     7      4     305
                                             40 BANK0     11     7      4
                            ___flmul (ARG)
                           ___xxtofl (ARG)
 ---------------------------------------------------------------------------------
 (1) ___flmul                                             26    18      8    2569
                                             14 BANK0     26    18      8
                          __Umul8_16
                           ___xxtofl (ARG)
 ---------------------------------------------------------------------------------
 (2) __Umul8_16                                            9     7      2     799
                                              0 BANK0      9     7      2
 ---------------------------------------------------------------------------------
 Estimated maximum stack depth 2
 ---------------------------------------------------------------------------------
 (Depth) Function   	        Calls       Base Space   Used Autos Params    Refs
 ---------------------------------------------------------------------------------
 (3) _isr                                                  4     4      0     382
                                              7 COMMON     4     4      0
                            _mostrar
 ---------------------------------------------------------------------------------
 (4) _mostrar                                              3     3      0     382
                                              4 COMMON     3     3      0
                              _tabla
 ---------------------------------------------------------------------------------
 (5) _tabla                                                4     2      2     283
                                              0 COMMON     4     2      2
 ---------------------------------------------------------------------------------
 Estimated maximum stack depth 5
 ---------------------------------------------------------------------------------

 Call Graph Graphs:

 _main (ROOT)
   ___flmul
     __Umul8_16
     ___xxtofl (ARG)
   ___fltol
     ___flmul (ARG)
     ___xxtofl (ARG)
   ___xxtofl
   _separacion
     ___awdiv
       ___wmul (ARG)
     ___wmul
   _setup

 _isr (ROOT)
   _mostrar
     _tabla

 Address spaces:
Name               Size   Autos  Total    Cost      Usage
BITCOMMON            E      0       0       0        0.0%
EEDATA             100      0       0       0        0.0%
NULL                 0      0       0       0        0.0%
CODE                 0      0       0       0        0.0%
COMMON               E      B       C       1       85.7%
BITSFR0              0      0       0       1        0.0%
SFR0                 0      0       0       1        0.0%
BITSFR1              0      0       0       2        0.0%
SFR1                 0      0       0       2        0.0%
STACK                0      0       0       2        0.0%
ABS                  0      0      50       3        0.0%
BITBANK0            50      0       0       4        0.0%
BITSFR3              0      0       0       4        0.0%
SFR3                 0      0       0       4        0.0%
BANK0               50     3B      44       5       85.0%
BITSFR2              0      0       0       5        0.0%
SFR2                 0      0       0       5        0.0%
BITBANK1            50      0       0       6        0.0%
BANK1               50      0       0       7        0.0%
BITBANK3            60      0       0       8        0.0%
BANK3               60      0       0       9        0.0%
BITBANK2            60      0       0      10        0.0%
BANK2               60      0       0      11        0.0%
DATA                 0      0      50      12        0.0%


Microchip Technology PIC Macro Assembler V2.35 build 20211206165544 
Symbol Table                                                                                   Sat Apr 23 17:07:16 2022

                     l85 0743                       l88 0566             ___awdiv@sign 002C  
    ___wmul@multiplicand 0022      __Umul8_16@word_mpld 0026                      l200 07D7  
                    l351 064B                      l606 079E                      l198 07BF  
                    l391 05CD                      l631 03A6                      l608 07B0  
                    l384 05E2                      l633 043D                      l394 05E2  
                    l644 0407                      l645 0413                      l637 03EB  
                    l593 02ED                      l587 0381                      l599 0375  
                    u900 07D3                      u901 07D2                      u910 05EA  
                    u911 05E9                      u920 05F5                      u921 05F4  
                    u930 0606                      u931 0605                      u950 0618  
                    u870 07B9                      u951 0617                      u871 07B8  
                    u945 060A                      u970 0629                      u971 0628  
                    u965 0619                      u885 07C0                      u990 063D  
                    u991 063C                      u975 0625                      u895 07C7  
                    u985 0631                      _isr 0744                      fsr0 0004  
                    indf 0000             ___flmul@aexp 0040             ___flmul@bexp 0041  
           ___flmul@sign 003B             ___flmul@temp 0046             ___flmul@prod 0042  
           ___fltol@exp1 0052                     l1220 07B5                     l1222 07B9  
                   l1310 0700                     l1400 0033                     l1240 05F1  
                   l1232 05E3                     l1224 07C6                     l1320 0713  
                   l1312 070D                     l1410 004F                     l1402 0038  
                   l1250 0606                     l1242 05F5                     l1234 05E6  
                   l1226 07CD                     l1218 07B1                     l1330 071F  
                   l1322 0714                     l1314 070E                     l1306 06FB  
                   l1500 02F2                     l1420 0064                     l1412 0054  
                   l1404 003D                     l1260 0629                     l1252 0609  
                   l1244 05FA                     l1236 05EA                     l1228 07D3  
                   l1340 0730                     l1332 0723                     l1324 0715  
                   l1316 0711                     l1308 06FF                     l1502 02F7  
                   l1510 0328                     l1430 0080                     l1422 0069  
                   l1414 005A                     l1406 0045                     l1270 0642  
                   l1262 062F                     l1254 0610                     l1246 05FE  
                   l1238 05EF                     l1350 0742                     l1342 0733  
                   l1334 0727                     l1326 071B                     l1318 0712  
                   l1280 0794                     l1520 035B                     l1512 0335  
                   l1504 0305                     l1440 00AB                     l1432 0085  
                   l1424 0071                     l1416 005E                     l1408 0047  
                   l1272 0647                     l1264 0630                     l1256 0614  
                   l1248 0600                     l1352 04D9                     l1344 0734  
                   l1336 072A                     l1328 071E                     l1282 0798  
                   l1522 0369                     l1514 0340                     l1506 0309  
                   l1450 0148                     l1442 00C8                     l1426 0073  
                   l1418 005F                     l1370 059D                     l1362 057D  
                   l1266 0637                     l1258 0618                     l1346 0738  
                   l1338 072D                     l1610 04B0                     l1602 043E  
                   l1284 07A7                     l1276 078B                     l1524 036D  
                   l1516 034F                     l1508 0322                     l1460 01AB  
                   l1452 0151                     l1444 00E4                     l1436 008E  
                   l1428 007B                     l1372 05A1                     l1380 05BB  
                   l1364 0592                     l1356 0567                     l1540 03AE  
                   l1532 0385                     l1268 063D                     l1348 073C  
                   l1620 04CF                     l1612 04B6                     l1604 0443  
                   l1286 07AC                     l1278 078D                     l1526 036E  
                   l1518 0359                     l1470 024B                     l1462 01C4  
                   l1454 0161                     l1446 0110                     l1438 009E  
                   l1390 05D7                     l1366 0593                     l1358 0574  
                   l1550 03D0                     l1534 038A                     l1622 04D2  
                   l1614 04BF                     l1606 0479                     l1528 0379  
                   l1480 02B9                     l1472 0271                     l1464 01E1  
                   l1456 017E                     l1448 012C                     l1392 0021  
                   l1368 059B                     l1560 0401                     l1552 03D4  
                   l1544 03B7                     l1536 038E                     l1616 04C4  
                   l1608 04A3                     l1490 02D1                     l1482 02BD  
                   l1474 0299                     l1466 020E                     l1458 018E  
                   l1394 0028                     l1386 05C2                     l1378 05A9  
                   l1570 0434                     l1562 040B                     l1554 03E2  
                   l1546 03BC                     l1538 039E                     l1618 04CD  
                   l1492 02D2                     l1484 02BE                     l1476 02A2  
                   l1468 021E                     l1396 002E                     l1388 05D2  
                   l1572 0435                     l1564 0415                     l1556 03F2  
                   l1548 03C9                     l1494 02D6                     l1486 02C7  
                   l1478 02B0                     l1398 0032                     l1566 042B  
                   l1558 03FD                     l1496 02EA                     l1488 02CD  
                   l1568 0430                     ?_isr 0070                     u1000 0642  
                   u1001 0641                     u1010 0798                     u1011 0797  
                   u1100 05C1                     u1101 05C0                     u1030 07AC  
                   u1031 07AB                     u1200 0080                     u1120 05D2  
                   u1040 0574                     u1025 079F                     u1201 007F  
                   u1121 05D1                     u1041 0573                     u1210 0085  
                   u1130 05D7                     u1050 058B                     u1211 0084  
                   u1131 05D6                     u1115 05C4                     u1140 0032  
                   u1060 05A1                     u1301 01D3                     u1221 00D6  
                   u1141 0031                     u1061 05A0                     u1302 01DA  
                   u1222 00DD                     u1150 0038                     u1070 05A8  
                   u1311 0200                     u1303 01E1                     u1231 00F2  
                   u1223 00E4                     u1151 0037                     u1071 05A7  
                   u1055 0586                     u1312 0207                     u1232 00F9  
                   u1160 003D                     u1321 022D                     u1313 020E  
                   u1241 011E                     u1233 0100                     u1161 003C  
                   u1410 02D1                     u1330 0257                     u1322 0234  
                   u1242 0125                     u1170 005E                     u1090 05BA  
                   u1411 02D0                     u1323 023B                     u1251 013A  
                   u1243 012C                     u1171 005D                     u1091 05B9  
                   u1500 036D                     u1420 02D6                     u1252 0141  
                   u1180 0064                     u1501 036C                     u1421 02D5  
                   u1405 02C0                     u1341 0263                     u1253 0148  
                   u1181 0063                     u1085 05AA                     u1430 02EA  
                   u1350 027F                     u1342 026A                     u1190 0069  
                   u1510 038A                     u1431 02E9                     u1343 0271  
                   u1335 0252                     u1271 0170                     u1191 0068  
                   u1511 0389                     u1440 02F1                     u1272 0177  
                   u1600 0407                     u1520 038E                     u1441 02F0  
                   u1361 028B                     u1281 019D                     u1273 017E  
                   u1265 014A                     u1601 0406                     u1521 038D  
                   u1450 02F7                     u1362 0292                     u1282 01A4  
                   u1610 040B                     u1530 03AE                     u1451 02F6  
                   u1363 0299                     u1355 027A                     u1283 01AB  
                   u1611 040A                     u1531 03AD                     u1460 0309  
                   u1620 0420                     u1700 04B6                     u1461 0308  
                   u1701 04B5                     u1470 0318                     u1390 02BD  
                   u1630 0430                     u1550 03CF                     u1710 04BF  
                   u1391 02BC                     u1375 029B                     u1295 01AD  
                   u1631 042F                     u1551 03CE                     u1711 04BE  
                   u1480 0335                     u1640 0434                     u1720 04CD  
                   u1481 0334                     u1385 02B2                     u1641 0433  
                   u1625 041B                     u1545 03C1                     u1721 04CC  
                   u1490 034F                     u1570 03F1                     u1491 034E  
                   u1475 0313                     u1571 03F0                     u1485 0331  
                   u1565 03E3                     u1590 0401                     u1495 034B  
                   u1591 0400                     u1585 03F6                     i1l70 077F  
                   i1l63 0765                     i1l92 06AD                     i1l94 06C1  
                   i1l95 06D4                     i1l97 06FA                     _TMR0 0001  
                   _Van1 005D                     _main 043E                     btemp 007E  
                   start 000E                    ??_isr 0077            ___fltol@sign1 0051  
                  ?_main 0070          __end_of___awdiv 064C          __end_of___flmul 0382  
        __end_of___fltol 05E3                    _ANSEL 0188          ___awdiv@divisor 0026  
                  i1l112 06A6          ___awdiv@counter 002B                    _VALOR 005E  
                  _PORTA 0005                    _PORTB 0006                    _PORTC 0007  
                  _PORTD 0008                    _TRISA 0085                    _TRISB 0086  
                  _TRISC 0087                    _TRISD 0088                    _tabla 064C  
                  _setup 06FB                    pclath 000A          __end_of_mostrar 06FB  
                  status 0003                    wtemp0 007E          __initialization 0011  
           __end_of_main 04D9                   ??_main 0053                   ?_tabla 0070  
                 _ADRESH 001E         ___awdiv@dividend 0028                   ?_setup 0070  
                 _ANSELH 0189                   i1l1200 0671                   i1l1202 0676  
                 i1l1210 06A5                   i1l1204 067B                   i1l1300 06E7  
                 i1l1208 0680                   i1l1190 0658                   i1l1192 065D  
                 i1l1184 064C                   i1l1194 0662                   i1l1186 064E  
                 i1l1290 06A8                   i1l1196 0667                   i1l1188 0653  
                 i1l1292 06AE                   i1l1198 066C                   i1l1294 06C2  
                 i1l1296 06D5                   i1l1580 0753                   i1l1590 076F  
                 i1l1582 0756                   i1l1664 06EF                   i1l1592 0773  
                 i1l1584 075F                   i1l1576 0744                   i1l1666 0685  
                 i1l1594 0779                   i1l1586 0763                   i1l1578 074A  
                 i1l1596 077A                   i1l1588 0769                   i1l1598 077B  
                 u165_20 074A                   u165_21 0749                   u166_20 0753  
                 u166_21 0752                   u167_20 075F                   u167_21 075E  
                 u168_20 0769                   u168_21 0768                   u169_20 0779  
                 u169_21 0778         __end_of___xxtofl 043E                   ___wmul 07B1  
              ??___awdiv 002A                ??___flmul 0036                ??___fltol 004C  
       ___awdiv@quotient 002D                   tabla@a 0070                   saved_w 007E  
              ??_mostrar 0074             ___xxtofl@arg 002A             ___xxtofl@exp 0029  
           ___xxtofl@val 0020  __end_of__initialization 001D               ___fltol@f1 0048  
         __pcstackCOMMON 0070            __end_of_tabla 06A7            __end_of_setup 0744  
         _OPTION_REGbits 0081                  ??_tabla 0072                  ??_setup 0020  
             __pbssBANK0 005B        __end_of__Umul8_16 07B1               __pmaintext 043E  
                ?___wmul 0020               __pintentry 0004                ?___xxtofl 0020  
                ___awdiv 05E3                  ___flmul 0021                  ___fltol 0567  
            separacion@a 002F              separacion@b 0031                  __ptext1 06FB  
                __ptext2 04D9                  __ptext3 07B1                  __ptext4 05E3  
                __ptext5 0382                  __ptext6 0567                  __ptext7 0021  
                __ptext8 0788                  __ptext9 0744               ??___xxtofl 0024  
                _mostrar 06A7     _Bandera_multiplexado 007B                  _voltaje 005B  
   end_of_initialization 001D               _separacion 04D9                _PORTDbits 0008  
          ___xxtofl@sign 0028              ___flmul@grs 003C           __end_of___wmul 07D8  
    start_initialization 0011              __end_of_isr 0788              ?_separacion 002F  
               ??___wmul 0024                __Umul8_16 0788               tabla@valor 0073  
              ___flmul@a 0032                ___flmul@b 002E              __pbssCOMMON 007B  
              ___latbits 0002            __pcstackBANK0 0020                 ?___awdiv 0026  
               ?___flmul 002E                 ?___fltol 0048               ?__Umul8_16 0020  
               ?_mostrar 0070        interrupt_function 0004           ___wmul@product 0024  
               _PIE1bits 008C                 _PIR1bits 000C               _ADCON0bits 001F  
             _ADCON1bits 009F        ___wmul@multiplier 0020              ??__Umul8_16 0022  
               ___xxtofl 0382                 _main$926 0057                 __ptext10 06A7  
               __ptext11 064C             ??_separacion 0032               _INTCONbits 000B  
     __end_of_separacion 0567                 intlevel1 0000               _OSCCONbits 008F  
               mostrar@a 0076   __Umul8_16@multiplicand 0020     __Umul8_16@multiplier 0028  
      __Umul8_16@product 0024  
